
bomb:     file format elf32-i386


Disassembly of section .init:

080487c8 <_init>:
 80487c8:	53                   	push   %ebx
 80487c9:	83 ec 08             	sub    $0x8,%esp
 80487cc:	e8 00 00 00 00       	call   80487d1 <_init+0x9>
 80487d1:	5b                   	pop    %ebx
 80487d2:	81 c3 23 38 00 00    	add    $0x3823,%ebx
 80487d8:	8b 83 fc ff ff ff    	mov    -0x4(%ebx),%eax
 80487de:	85 c0                	test   %eax,%eax
 80487e0:	74 05                	je     80487e7 <_init+0x1f>
 80487e2:	e8 19 01 00 00       	call   8048900 <__gmon_start__@plt>
 80487e7:	e8 d4 02 00 00       	call   8048ac0 <frame_dummy>
 80487ec:	e8 5f 15 00 00       	call   8049d50 <__do_global_ctors_aux>
 80487f1:	83 c4 08             	add    $0x8,%esp
 80487f4:	5b                   	pop    %ebx
 80487f5:	c3                   	ret    

Disassembly of section .plt:

08048800 <cuserid@plt-0x10>:
 8048800:	ff 35 f8 bf 04 08    	pushl  0x804bff8
 8048806:	ff 25 fc bf 04 08    	jmp    *0x804bffc
 804880c:	00 00                	add    %al,(%eax)
	...

08048810 <cuserid@plt>:
 8048810:	ff 25 00 c0 04 08    	jmp    *0x804c000
 8048816:	68 00 00 00 00       	push   $0x0
 804881b:	e9 e0 ff ff ff       	jmp    8048800 <_init+0x38>

08048820 <fflush@plt>:
 8048820:	ff 25 04 c0 04 08    	jmp    *0x804c004
 8048826:	68 08 00 00 00       	push   $0x8
 804882b:	e9 d0 ff ff ff       	jmp    8048800 <_init+0x38>

08048830 <dup@plt>:
 8048830:	ff 25 08 c0 04 08    	jmp    *0x804c008
 8048836:	68 10 00 00 00       	push   $0x10
 804883b:	e9 c0 ff ff ff       	jmp    8048800 <_init+0x38>

08048840 <fgets@plt>:
 8048840:	ff 25 0c c0 04 08    	jmp    *0x804c00c
 8048846:	68 18 00 00 00       	push   $0x18
 804884b:	e9 b0 ff ff ff       	jmp    8048800 <_init+0x38>

08048850 <fclose@plt>:
 8048850:	ff 25 10 c0 04 08    	jmp    *0x804c010
 8048856:	68 20 00 00 00       	push   $0x20
 804885b:	e9 a0 ff ff ff       	jmp    8048800 <_init+0x38>

08048860 <signal@plt>:
 8048860:	ff 25 14 c0 04 08    	jmp    *0x804c014
 8048866:	68 28 00 00 00       	push   $0x28
 804886b:	e9 90 ff ff ff       	jmp    8048800 <_init+0x38>

08048870 <sleep@plt>:
 8048870:	ff 25 18 c0 04 08    	jmp    *0x804c018
 8048876:	68 30 00 00 00       	push   $0x30
 804887b:	e9 80 ff ff ff       	jmp    8048800 <_init+0x38>

08048880 <__stack_chk_fail@plt>:
 8048880:	ff 25 1c c0 04 08    	jmp    *0x804c01c
 8048886:	68 38 00 00 00       	push   $0x38
 804888b:	e9 70 ff ff ff       	jmp    8048800 <_init+0x38>

08048890 <rewind@plt>:
 8048890:	ff 25 20 c0 04 08    	jmp    *0x804c020
 8048896:	68 40 00 00 00       	push   $0x40
 804889b:	e9 60 ff ff ff       	jmp    8048800 <_init+0x38>

080488a0 <fwrite@plt>:
 80488a0:	ff 25 24 c0 04 08    	jmp    *0x804c024
 80488a6:	68 48 00 00 00       	push   $0x48
 80488ab:	e9 50 ff ff ff       	jmp    8048800 <_init+0x38>

080488b0 <gethostname@plt>:
 80488b0:	ff 25 28 c0 04 08    	jmp    *0x804c028
 80488b6:	68 50 00 00 00       	push   $0x50
 80488bb:	e9 40 ff ff ff       	jmp    8048800 <_init+0x38>

080488c0 <getenv@plt>:
 80488c0:	ff 25 2c c0 04 08    	jmp    *0x804c02c
 80488c6:	68 58 00 00 00       	push   $0x58
 80488cb:	e9 30 ff ff ff       	jmp    8048800 <_init+0x38>

080488d0 <puts@plt>:
 80488d0:	ff 25 30 c0 04 08    	jmp    *0x804c030
 80488d6:	68 60 00 00 00       	push   $0x60
 80488db:	e9 20 ff ff ff       	jmp    8048800 <_init+0x38>

080488e0 <system@plt>:
 80488e0:	ff 25 34 c0 04 08    	jmp    *0x804c034
 80488e6:	68 68 00 00 00       	push   $0x68
 80488eb:	e9 10 ff ff ff       	jmp    8048800 <_init+0x38>

080488f0 <__memmove_chk@plt>:
 80488f0:	ff 25 38 c0 04 08    	jmp    *0x804c038
 80488f6:	68 70 00 00 00       	push   $0x70
 80488fb:	e9 00 ff ff ff       	jmp    8048800 <_init+0x38>

08048900 <__gmon_start__@plt>:
 8048900:	ff 25 3c c0 04 08    	jmp    *0x804c03c
 8048906:	68 78 00 00 00       	push   $0x78
 804890b:	e9 f0 fe ff ff       	jmp    8048800 <_init+0x38>

08048910 <exit@plt>:
 8048910:	ff 25 40 c0 04 08    	jmp    *0x804c040
 8048916:	68 80 00 00 00       	push   $0x80
 804891b:	e9 e0 fe ff ff       	jmp    8048800 <_init+0x38>

08048920 <fdopen@plt>:
 8048920:	ff 25 44 c0 04 08    	jmp    *0x804c044
 8048926:	68 88 00 00 00       	push   $0x88
 804892b:	e9 d0 fe ff ff       	jmp    8048800 <_init+0x38>

08048930 <__libc_start_main@plt>:
 8048930:	ff 25 48 c0 04 08    	jmp    *0x804c048
 8048936:	68 90 00 00 00       	push   $0x90
 804893b:	e9 c0 fe ff ff       	jmp    8048800 <_init+0x38>

08048940 <__isoc99_sscanf@plt>:
 8048940:	ff 25 4c c0 04 08    	jmp    *0x804c04c
 8048946:	68 98 00 00 00       	push   $0x98
 804894b:	e9 b0 fe ff ff       	jmp    8048800 <_init+0x38>

08048950 <fopen@plt>:
 8048950:	ff 25 50 c0 04 08    	jmp    *0x804c050
 8048956:	68 a0 00 00 00       	push   $0xa0
 804895b:	e9 a0 fe ff ff       	jmp    8048800 <_init+0x38>

08048960 <__strcpy_chk@plt>:
 8048960:	ff 25 54 c0 04 08    	jmp    *0x804c054
 8048966:	68 a8 00 00 00       	push   $0xa8
 804896b:	e9 90 fe ff ff       	jmp    8048800 <_init+0x38>

08048970 <__printf_chk@plt>:
 8048970:	ff 25 58 c0 04 08    	jmp    *0x804c058
 8048976:	68 b0 00 00 00       	push   $0xb0
 804897b:	e9 80 fe ff ff       	jmp    8048800 <_init+0x38>

08048980 <fputc@plt>:
 8048980:	ff 25 5c c0 04 08    	jmp    *0x804c05c
 8048986:	68 b8 00 00 00       	push   $0xb8
 804898b:	e9 70 fe ff ff       	jmp    8048800 <_init+0x38>

08048990 <tmpfile@plt>:
 8048990:	ff 25 60 c0 04 08    	jmp    *0x804c060
 8048996:	68 c0 00 00 00       	push   $0xc0
 804899b:	e9 60 fe ff ff       	jmp    8048800 <_init+0x38>

080489a0 <socket@plt>:
 80489a0:	ff 25 64 c0 04 08    	jmp    *0x804c064
 80489a6:	68 c8 00 00 00       	push   $0xc8
 80489ab:	e9 50 fe ff ff       	jmp    8048800 <_init+0x38>

080489b0 <__fprintf_chk@plt>:
 80489b0:	ff 25 68 c0 04 08    	jmp    *0x804c068
 80489b6:	68 d0 00 00 00       	push   $0xd0
 80489bb:	e9 40 fe ff ff       	jmp    8048800 <_init+0x38>

080489c0 <gethostbyname@plt>:
 80489c0:	ff 25 6c c0 04 08    	jmp    *0x804c06c
 80489c6:	68 d8 00 00 00       	push   $0xd8
 80489cb:	e9 30 fe ff ff       	jmp    8048800 <_init+0x38>

080489d0 <strtol@plt>:
 80489d0:	ff 25 70 c0 04 08    	jmp    *0x804c070
 80489d6:	68 e0 00 00 00       	push   $0xe0
 80489db:	e9 20 fe ff ff       	jmp    8048800 <_init+0x38>

080489e0 <connect@plt>:
 80489e0:	ff 25 74 c0 04 08    	jmp    *0x804c074
 80489e6:	68 e8 00 00 00       	push   $0xe8
 80489eb:	e9 10 fe ff ff       	jmp    8048800 <_init+0x38>

080489f0 <close@plt>:
 80489f0:	ff 25 78 c0 04 08    	jmp    *0x804c078
 80489f6:	68 f0 00 00 00       	push   $0xf0
 80489fb:	e9 00 fe ff ff       	jmp    8048800 <_init+0x38>

08048a00 <__ctype_tolower_loc@plt>:
 8048a00:	ff 25 7c c0 04 08    	jmp    *0x804c07c
 8048a06:	68 f8 00 00 00       	push   $0xf8
 8048a0b:	e9 f0 fd ff ff       	jmp    8048800 <_init+0x38>

08048a10 <__ctype_b_loc@plt>:
 8048a10:	ff 25 80 c0 04 08    	jmp    *0x804c080
 8048a16:	68 00 01 00 00       	push   $0x100
 8048a1b:	e9 e0 fd ff ff       	jmp    8048800 <_init+0x38>

08048a20 <__sprintf_chk@plt>:
 8048a20:	ff 25 84 c0 04 08    	jmp    *0x804c084
 8048a26:	68 08 01 00 00       	push   $0x108
 8048a2b:	e9 d0 fd ff ff       	jmp    8048800 <_init+0x38>

Disassembly of section .text:

08048a30 <_start>:
 8048a30:	31 ed                	xor    %ebp,%ebp
 8048a32:	5e                   	pop    %esi
 8048a33:	89 e1                	mov    %esp,%ecx
 8048a35:	83 e4 f0             	and    $0xfffffff0,%esp
 8048a38:	50                   	push   %eax
 8048a39:	54                   	push   %esp
 8048a3a:	52                   	push   %edx
 8048a3b:	68 40 9d 04 08       	push   $0x8049d40
 8048a40:	68 d0 9c 04 08       	push   $0x8049cd0
 8048a45:	51                   	push   %ecx
 8048a46:	56                   	push   %esi
 8048a47:	68 e4 8a 04 08       	push   $0x8048ae4
 8048a4c:	e8 df fe ff ff       	call   8048930 <__libc_start_main@plt>
 8048a51:	f4                   	hlt    
 8048a52:	90                   	nop
 8048a53:	90                   	nop
 8048a54:	90                   	nop
 8048a55:	90                   	nop
 8048a56:	90                   	nop
 8048a57:	90                   	nop
 8048a58:	90                   	nop
 8048a59:	90                   	nop
 8048a5a:	90                   	nop
 8048a5b:	90                   	nop
 8048a5c:	90                   	nop
 8048a5d:	90                   	nop
 8048a5e:	90                   	nop
 8048a5f:	90                   	nop

08048a60 <__do_global_dtors_aux>:
 8048a60:	55                   	push   %ebp
 8048a61:	89 e5                	mov    %esp,%ebp
 8048a63:	53                   	push   %ebx
 8048a64:	83 ec 04             	sub    $0x4,%esp
 8048a67:	80 3d 44 c7 04 08 00 	cmpb   $0x0,0x804c744
 8048a6e:	75 3f                	jne    8048aaf <__do_global_dtors_aux+0x4f>
 8048a70:	a1 48 c7 04 08       	mov    0x804c748,%eax
 8048a75:	bb 20 bf 04 08       	mov    $0x804bf20,%ebx
 8048a7a:	81 eb 1c bf 04 08    	sub    $0x804bf1c,%ebx
 8048a80:	c1 fb 02             	sar    $0x2,%ebx
 8048a83:	83 eb 01             	sub    $0x1,%ebx
 8048a86:	39 d8                	cmp    %ebx,%eax
 8048a88:	73 1e                	jae    8048aa8 <__do_global_dtors_aux+0x48>
 8048a8a:	8d b6 00 00 00 00    	lea    0x0(%esi),%esi
 8048a90:	83 c0 01             	add    $0x1,%eax
 8048a93:	a3 48 c7 04 08       	mov    %eax,0x804c748
 8048a98:	ff 14 85 1c bf 04 08 	call   *0x804bf1c(,%eax,4)
 8048a9f:	a1 48 c7 04 08       	mov    0x804c748,%eax
 8048aa4:	39 d8                	cmp    %ebx,%eax
 8048aa6:	72 e8                	jb     8048a90 <__do_global_dtors_aux+0x30>
 8048aa8:	c6 05 44 c7 04 08 01 	movb   $0x1,0x804c744
 8048aaf:	83 c4 04             	add    $0x4,%esp
 8048ab2:	5b                   	pop    %ebx
 8048ab3:	5d                   	pop    %ebp
 8048ab4:	c3                   	ret    
 8048ab5:	8d 74 26 00          	lea    0x0(%esi,%eiz,1),%esi
 8048ab9:	8d bc 27 00 00 00 00 	lea    0x0(%edi,%eiz,1),%edi

08048ac0 <frame_dummy>:
 8048ac0:	55                   	push   %ebp
 8048ac1:	89 e5                	mov    %esp,%ebp
 8048ac3:	83 ec 18             	sub    $0x18,%esp
 8048ac6:	a1 24 bf 04 08       	mov    0x804bf24,%eax
 8048acb:	85 c0                	test   %eax,%eax
 8048acd:	74 12                	je     8048ae1 <frame_dummy+0x21>
 8048acf:	b8 00 00 00 00       	mov    $0x0,%eax
 8048ad4:	85 c0                	test   %eax,%eax
 8048ad6:	74 09                	je     8048ae1 <frame_dummy+0x21>
 8048ad8:	c7 04 24 24 bf 04 08 	movl   $0x804bf24,(%esp)
 8048adf:	ff d0                	call   *%eax
 8048ae1:	c9                   	leave  
 8048ae2:	c3                   	ret    
 8048ae3:	90                   	nop

08048ae4 <main>:
 8048ae4:	55                   	push   %ebp
 8048ae5:	89 e5                	mov    %esp,%ebp
 8048ae7:	53                   	push   %ebx
 8048ae8:	83 e4 f0             	and    $0xfffffff0,%esp
 8048aeb:	83 ec 10             	sub    $0x10,%esp
 8048aee:	8b 45 08             	mov    0x8(%ebp),%eax
 8048af1:	8b 5d 0c             	mov    0xc(%ebp),%ebx
 8048af4:	83 f8 01             	cmp    $0x1,%eax
 8048af7:	75 0c                	jne    8048b05 <main+0x21>
 8048af9:	a1 20 c7 04 08       	mov    0x804c720,%eax
 8048afe:	a3 50 c7 04 08       	mov    %eax,0x804c750
 8048b03:	eb 74                	jmp    8048b79 <main+0x95>
 8048b05:	83 f8 02             	cmp    $0x2,%eax
 8048b08:	75 49                	jne    8048b53 <main+0x6f>
 8048b0a:	c7 44 24 04 59 a1 04 	movl   $0x804a159,0x4(%esp)
 8048b11:	08 
 8048b12:	8b 43 04             	mov    0x4(%ebx),%eax
 8048b15:	89 04 24             	mov    %eax,(%esp)
 8048b18:	e8 33 fe ff ff       	call   8048950 <fopen@plt>
 8048b1d:	a3 50 c7 04 08       	mov    %eax,0x804c750
 8048b22:	85 c0                	test   %eax,%eax
 8048b24:	75 53                	jne    8048b79 <main+0x95>
 8048b26:	8b 43 04             	mov    0x4(%ebx),%eax
 8048b29:	89 44 24 0c          	mov    %eax,0xc(%esp)
 8048b2d:	8b 03                	mov    (%ebx),%eax
 8048b2f:	89 44 24 08          	mov    %eax,0x8(%esp)
 8048b33:	c7 44 24 04 a0 9d 04 	movl   $0x8049da0,0x4(%esp)
 8048b3a:	08 
 8048b3b:	c7 04 24 01 00 00 00 	movl   $0x1,(%esp)
 8048b42:	e8 29 fe ff ff       	call   8048970 <__printf_chk@plt>
 8048b47:	c7 04 24 08 00 00 00 	movl   $0x8,(%esp)
 8048b4e:	e8 bd fd ff ff       	call   8048910 <exit@plt>
 8048b53:	8b 03                	mov    (%ebx),%eax
 8048b55:	89 44 24 08          	mov    %eax,0x8(%esp)
 8048b59:	c7 44 24 04 bd 9d 04 	movl   $0x8049dbd,0x4(%esp)
 8048b60:	08 
 8048b61:	c7 04 24 01 00 00 00 	movl   $0x1,(%esp)
 8048b68:	e8 03 fe ff ff       	call   8048970 <__printf_chk@plt>
 8048b6d:	c7 04 24 08 00 00 00 	movl   $0x8,(%esp)
 8048b74:	e8 97 fd ff ff       	call   8048910 <exit@plt>
 8048b79:	e8 c1 06 00 00       	call   804923f <initialize_bomb>
 8048b7e:	c7 04 24 24 9e 04 08 	movl   $0x8049e24,(%esp)
 8048b85:	e8 46 fd ff ff       	call   80488d0 <puts@plt>
 8048b8a:	c7 04 24 60 9e 04 08 	movl   $0x8049e60,(%esp)
 8048b91:	e8 3a fd ff ff       	call   80488d0 <puts@plt>
 8048b96:	e8 bf 0d 00 00       	call   804995a <read_line>
 8048b9b:	89 04 24             	mov    %eax,(%esp)
 8048b9e:	e8 ad 00 00 00       	call   8048c50 <phase_1>
 8048ba3:	e8 cb 0e 00 00       	call   8049a73 <phase_defused>
 8048ba8:	c7 04 24 8c 9e 04 08 	movl   $0x8049e8c,(%esp)
 8048baf:	e8 1c fd ff ff       	call   80488d0 <puts@plt>
 8048bb4:	e8 a1 0d 00 00       	call   804995a <read_line>
 8048bb9:	89 04 24             	mov    %eax,(%esp)
 8048bbc:	e8 b3 00 00 00       	call   8048c74 <phase_2>
 8048bc1:	e8 ad 0e 00 00       	call   8049a73 <phase_defused>
 8048bc6:	c7 04 24 d7 9d 04 08 	movl   $0x8049dd7,(%esp)
 8048bcd:	e8 fe fc ff ff       	call   80488d0 <puts@plt>
 8048bd2:	e8 83 0d 00 00       	call   804995a <read_line>
 8048bd7:	89 04 24             	mov    %eax,(%esp)
 8048bda:	e8 e0 00 00 00       	call   8048cbf <phase_3>
 8048bdf:	e8 8f 0e 00 00       	call   8049a73 <phase_defused>
 8048be4:	c7 04 24 f5 9d 04 08 	movl   $0x8049df5,(%esp)
 8048beb:	e8 e0 fc ff ff       	call   80488d0 <puts@plt>
 8048bf0:	e8 65 0d 00 00       	call   804995a <read_line>
 8048bf5:	89 04 24             	mov    %eax,(%esp)
 8048bf8:	e8 b7 01 00 00       	call   8048db4 <phase_4>
 8048bfd:	e8 71 0e 00 00       	call   8049a73 <phase_defused>
 8048c02:	c7 04 24 b8 9e 04 08 	movl   $0x8049eb8,(%esp)
 8048c09:	e8 c2 fc ff ff       	call   80488d0 <puts@plt>
 8048c0e:	e8 47 0d 00 00       	call   804995a <read_line>
 8048c13:	89 04 24             	mov    %eax,(%esp)
 8048c16:	e8 e2 01 00 00       	call   8048dfd <phase_5>
 8048c1b:	e8 53 0e 00 00       	call   8049a73 <phase_defused>
 8048c20:	c7 04 24 04 9e 04 08 	movl   $0x8049e04,(%esp)
 8048c27:	e8 a4 fc ff ff       	call   80488d0 <puts@plt>
 8048c2c:	e8 29 0d 00 00       	call   804995a <read_line>
 8048c31:	89 04 24             	mov    %eax,(%esp)
 8048c34:	e8 44 02 00 00       	call   8048e7d <phase_6>
 8048c39:	e8 35 0e 00 00       	call   8049a73 <phase_defused>
 8048c3e:	b8 00 00 00 00       	mov    $0x0,%eax
 8048c43:	8b 5d fc             	mov    -0x4(%ebp),%ebx
 8048c46:	c9                   	leave  
 8048c47:	c3                   	ret    
 8048c48:	90                   	nop
 8048c49:	90                   	nop
 8048c4a:	90                   	nop
 8048c4b:	90                   	nop
 8048c4c:	90                   	nop
 8048c4d:	90                   	nop
 8048c4e:	90                   	nop
 8048c4f:	90                   	nop

08048c50 <phase_1>:
 8048c50:	55                   	push   %ebp
 8048c51:	89 e5                	mov    %esp,%ebp
 8048c53:	83 ec 18             	sub    $0x18,%esp
 8048c56:	c7 44 24 04 dc 9e 04 	movl   $0x8049edc,0x4(%esp)
 8048c5d:	08 
 8048c5e:	8b 45 08             	mov    0x8(%ebp),%eax
 8048c61:	89 04 24             	mov    %eax,(%esp)
 8048c64:	e8 52 04 00 00       	call   80490bb <strings_not_equal>
 8048c69:	85 c0                	test   %eax,%eax
 8048c6b:	74 05                	je     8048c72 <phase_1+0x22>
 8048c6d:	e8 a6 0c 00 00       	call   8049918 <explode_bomb>
 8048c72:	c9                   	leave  
 8048c73:	c3                   	ret    

08048c74 <phase_2>:
 8048c74:	55                   	push   %ebp
 8048c75:	89 e5                	mov    %esp,%ebp
 8048c77:	53                   	push   %ebx
 8048c78:	83 ec 34             	sub    $0x34,%esp
 8048c7b:	8d 45 e0             	lea    -0x20(%ebp),%eax
 8048c7e:	89 44 24 04          	mov    %eax,0x4(%esp)
 8048c82:	8b 45 08             	mov    0x8(%ebp),%eax
 8048c85:	89 04 24             	mov    %eax,(%esp)
 8048c88:	e8 97 0d 00 00       	call   8049a24 <read_six_numbers>
 8048c8d:	83 7d e0 01          	cmpl   $0x1,-0x20(%ebp)
 8048c91:	74 05                	je     8048c98 <phase_2+0x24>
 8048c93:	e8 80 0c 00 00       	call   8049918 <explode_bomb>
 8048c98:	bb 01 00 00 00       	mov    $0x1,%ebx
 8048c9d:	89 d8                	mov    %ebx,%eax
 8048c9f:	83 c3 01             	add    $0x1,%ebx
 8048ca2:	89 da                	mov    %ebx,%edx
 8048ca4:	0f af 54 85 dc       	imul   -0x24(%ebp,%eax,4),%edx
 8048ca9:	39 54 85 e0          	cmp    %edx,-0x20(%ebp,%eax,4)
 8048cad:	74 05                	je     8048cb4 <phase_2+0x40>
 8048caf:	e8 64 0c 00 00       	call   8049918 <explode_bomb>
 8048cb4:	83 fb 06             	cmp    $0x6,%ebx
 8048cb7:	75 e4                	jne    8048c9d <phase_2+0x29>
 8048cb9:	83 c4 34             	add    $0x34,%esp
 8048cbc:	5b                   	pop    %ebx
 8048cbd:	5d                   	pop    %ebp
 8048cbe:	c3                   	ret    

08048cbf <phase_3>:
 8048cbf:	55                   	push   %ebp
 8048cc0:	89 e5                	mov    %esp,%ebp
 8048cc2:	83 ec 28             	sub    $0x28,%esp
 8048cc5:	8d 45 f4             	lea    -0xc(%ebp),%eax
 8048cc8:	89 44 24 0c          	mov    %eax,0xc(%esp)
 8048ccc:	8d 45 f0             	lea    -0x10(%ebp),%eax
 8048ccf:	89 44 24 08          	mov    %eax,0x8(%esp)
 8048cd3:	c7 44 24 04 2e a3 04 	movl   $0x804a32e,0x4(%esp)
 8048cda:	08 
 8048cdb:	8b 45 08             	mov    0x8(%ebp),%eax
 8048cde:	89 04 24             	mov    %eax,(%esp)
 8048ce1:	e8 5a fc ff ff       	call   8048940 <__isoc99_sscanf@plt>
 8048ce6:	83 f8 01             	cmp    $0x1,%eax
 8048ce9:	7f 05                	jg     8048cf0 <phase_3+0x31>
 8048ceb:	e8 28 0c 00 00       	call   8049918 <explode_bomb>
 8048cf0:	83 7d f0 07          	cmpl   $0x7,-0x10(%ebp)
 8048cf4:	77 65                	ja     8048d5b <phase_3+0x9c>
 8048cf6:	8b 45 f0             	mov    -0x10(%ebp),%eax
 8048cf9:	ff 24 85 38 9f 04 08 	jmp    *0x8049f38(,%eax,4)
 8048d00:	b8 00 00 00 00       	mov    $0x0,%eax
 8048d05:	eb 05                	jmp    8048d0c <phase_3+0x4d>
 8048d07:	b8 a7 02 00 00       	mov    $0x2a7,%eax
 8048d0c:	2d e8 00 00 00       	sub    $0xe8,%eax
 8048d11:	eb 05                	jmp    8048d18 <phase_3+0x59>
 8048d13:	b8 00 00 00 00       	mov    $0x0,%eax
 8048d18:	05 60 01 00 00       	add    $0x160,%eax
 8048d1d:	eb 05                	jmp    8048d24 <phase_3+0x65>
 8048d1f:	b8 00 00 00 00       	mov    $0x0,%eax
 8048d24:	2d d0 03 00 00       	sub    $0x3d0,%eax
 8048d29:	eb 05                	jmp    8048d30 <phase_3+0x71>
 8048d2b:	b8 00 00 00 00       	mov    $0x0,%eax
 8048d30:	05 8c 03 00 00       	add    $0x38c,%eax
 8048d35:	eb 05                	jmp    8048d3c <phase_3+0x7d>
 8048d37:	b8 00 00 00 00       	mov    $0x0,%eax
 8048d3c:	2d bf 01 00 00       	sub    $0x1bf,%eax
 8048d41:	eb 05                	jmp    8048d48 <phase_3+0x89>
 8048d43:	b8 00 00 00 00       	mov    $0x0,%eax
 8048d48:	05 bf 01 00 00       	add    $0x1bf,%eax
 8048d4d:	eb 05                	jmp    8048d54 <phase_3+0x95>
 8048d4f:	b8 00 00 00 00       	mov    $0x0,%eax
 8048d54:	2d 29 03 00 00       	sub    $0x329,%eax
 8048d59:	eb 0a                	jmp    8048d65 <phase_3+0xa6>
 8048d5b:	e8 b8 0b 00 00       	call   8049918 <explode_bomb>
 8048d60:	b8 00 00 00 00       	mov    $0x0,%eax
 8048d65:	83 7d f0 05          	cmpl   $0x5,-0x10(%ebp)
 8048d69:	7f 05                	jg     8048d70 <phase_3+0xb1>
 8048d6b:	3b 45 f4             	cmp    -0xc(%ebp),%eax
 8048d6e:	74 05                	je     8048d75 <phase_3+0xb6>
 8048d70:	e8 a3 0b 00 00       	call   8049918 <explode_bomb>
 8048d75:	c9                   	leave  
 8048d76:	c3                   	ret    

08048d77 <func4>:
 8048d77:	55                   	push   %ebp
 8048d78:	89 e5                	mov    %esp,%ebp
 8048d7a:	83 ec 18             	sub    $0x18,%esp
 8048d7d:	89 5d f8             	mov    %ebx,-0x8(%ebp)
 8048d80:	89 75 fc             	mov    %esi,-0x4(%ebp)
 8048d83:	8b 5d 08             	mov    0x8(%ebp),%ebx
 8048d86:	b8 01 00 00 00       	mov    $0x1,%eax
 8048d8b:	83 fb 01             	cmp    $0x1,%ebx
 8048d8e:	7e 1a                	jle    8048daa <func4+0x33>
 8048d90:	8d 43 ff             	lea    -0x1(%ebx),%eax
 8048d93:	89 04 24             	mov    %eax,(%esp)
 8048d96:	e8 dc ff ff ff       	call   8048d77 <func4>
 8048d9b:	89 c6                	mov    %eax,%esi
 8048d9d:	83 eb 02             	sub    $0x2,%ebx
 8048da0:	89 1c 24             	mov    %ebx,(%esp)
 8048da3:	e8 cf ff ff ff       	call   8048d77 <func4>
 8048da8:	01 f0                	add    %esi,%eax
 8048daa:	8b 5d f8             	mov    -0x8(%ebp),%ebx
 8048dad:	8b 75 fc             	mov    -0x4(%ebp),%esi
 8048db0:	89 ec                	mov    %ebp,%esp
 8048db2:	5d                   	pop    %ebp
 8048db3:	c3                   	ret    

08048db4 <phase_4>:
 8048db4:	55                   	push   %ebp
 8048db5:	89 e5                	mov    %esp,%ebp
 8048db7:	83 ec 28             	sub    $0x28,%esp
 8048dba:	8d 45 f4             	lea    -0xc(%ebp),%eax
 8048dbd:	89 44 24 08          	mov    %eax,0x8(%esp)
 8048dc1:	c7 44 24 04 31 a3 04 	movl   $0x804a331,0x4(%esp)
 8048dc8:	08 
 8048dc9:	8b 45 08             	mov    0x8(%ebp),%eax
 8048dcc:	89 04 24             	mov    %eax,(%esp)
 8048dcf:	e8 6c fb ff ff       	call   8048940 <__isoc99_sscanf@plt>
 8048dd4:	83 f8 01             	cmp    $0x1,%eax
 8048dd7:	75 06                	jne    8048ddf <phase_4+0x2b>
 8048dd9:	83 7d f4 00          	cmpl   $0x0,-0xc(%ebp)
 8048ddd:	7f 05                	jg     8048de4 <phase_4+0x30>
 8048ddf:	e8 34 0b 00 00       	call   8049918 <explode_bomb>
 8048de4:	8b 45 f4             	mov    -0xc(%ebp),%eax
 8048de7:	89 04 24             	mov    %eax,(%esp)
 8048dea:	e8 88 ff ff ff       	call   8048d77 <func4>
 8048def:	3d 18 0a 00 00       	cmp    $0xa18,%eax
 8048df4:	74 05                	je     8048dfb <phase_4+0x47>
 8048df6:	e8 1d 0b 00 00       	call   8049918 <explode_bomb>
 8048dfb:	c9                   	leave  
 8048dfc:	c3                   	ret    

08048dfd <phase_5>:
 8048dfd:	55                   	push   %ebp
 8048dfe:	89 e5                	mov    %esp,%ebp
 8048e00:	53                   	push   %ebx
 8048e01:	83 ec 24             	sub    $0x24,%esp
 8048e04:	8b 5d 08             	mov    0x8(%ebp),%ebx
 8048e07:	65 a1 14 00 00 00    	mov    %gs:0x14,%eax
 8048e0d:	89 45 f4             	mov    %eax,-0xc(%ebp)
 8048e10:	31 c0                	xor    %eax,%eax
 8048e12:	89 1c 24             	mov    %ebx,(%esp)
 8048e15:	e8 86 02 00 00       	call   80490a0 <string_length>
 8048e1a:	83 f8 06             	cmp    $0x6,%eax
 8048e1d:	74 05                	je     8048e24 <phase_5+0x27>
 8048e1f:	e8 f4 0a 00 00       	call   8049918 <explode_bomb>
 8048e24:	b8 00 00 00 00       	mov    $0x0,%eax
 8048e29:	0f be 14 03          	movsbl (%ebx,%eax,1),%edx
 8048e2d:	83 e2 0f             	and    $0xf,%edx
 8048e30:	0f b6 92 58 9f 04 08 	movzbl 0x8049f58(%edx),%edx
 8048e37:	88 54 05 ed          	mov    %dl,-0x13(%ebp,%eax,1)
 8048e3b:	83 c0 01             	add    $0x1,%eax
 8048e3e:	83 f8 06             	cmp    $0x6,%eax
 8048e41:	75 e6                	jne    8048e29 <phase_5+0x2c>
 8048e43:	c6 45 f3 00          	movb   $0x0,-0xd(%ebp)
 8048e47:	c7 44 24 04 2e 9f 04 	movl   $0x8049f2e,0x4(%esp)
 8048e4e:	08 
 8048e4f:	8d 45 ed             	lea    -0x13(%ebp),%eax
 8048e52:	89 04 24             	mov    %eax,(%esp)
 8048e55:	e8 61 02 00 00       	call   80490bb <strings_not_equal>
 8048e5a:	85 c0                	test   %eax,%eax
 8048e5c:	74 05                	je     8048e63 <phase_5+0x66>
 8048e5e:	e8 b5 0a 00 00       	call   8049918 <explode_bomb>
 8048e63:	8b 45 f4             	mov    -0xc(%ebp),%eax
 8048e66:	65 33 05 14 00 00 00 	xor    %gs:0x14,%eax
 8048e6d:	8d 76 00             	lea    0x0(%esi),%esi
 8048e70:	74 05                	je     8048e77 <phase_5+0x7a>
 8048e72:	e8 09 fa ff ff       	call   8048880 <__stack_chk_fail@plt>
 8048e77:	83 c4 24             	add    $0x24,%esp
 8048e7a:	5b                   	pop    %ebx
 8048e7b:	5d                   	pop    %ebp
 8048e7c:	c3                   	ret    

08048e7d <phase_6>:
 8048e7d:	55                   	push   %ebp
 8048e7e:	89 e5                	mov    %esp,%ebp
 8048e80:	56                   	push   %esi
 8048e81:	53                   	push   %ebx
 8048e82:	83 ec 40             	sub    $0x40,%esp
 8048e85:	8d 45 c8             	lea    -0x38(%ebp),%eax
 8048e88:	89 44 24 04          	mov    %eax,0x4(%esp)
 8048e8c:	8b 45 08             	mov    0x8(%ebp),%eax
 8048e8f:	89 04 24             	mov    %eax,(%esp)
 8048e92:	e8 8d 0b 00 00       	call   8049a24 <read_six_numbers>
 8048e97:	be 00 00 00 00       	mov    $0x0,%esi
 8048e9c:	8b 44 b5 c8          	mov    -0x38(%ebp,%esi,4),%eax
 8048ea0:	83 e8 01             	sub    $0x1,%eax
 8048ea3:	83 f8 05             	cmp    $0x5,%eax
 8048ea6:	76 05                	jbe    8048ead <phase_6+0x30>
 8048ea8:	e8 6b 0a 00 00       	call   8049918 <explode_bomb>
 8048ead:	83 c6 01             	add    $0x1,%esi
 8048eb0:	83 fe 06             	cmp    $0x6,%esi
 8048eb3:	74 35                	je     8048eea <phase_6+0x6d>
 8048eb5:	89 f3                	mov    %esi,%ebx
 8048eb7:	8b 44 9d c8          	mov    -0x38(%ebp,%ebx,4),%eax
 8048ebb:	39 44 b5 c4          	cmp    %eax,-0x3c(%ebp,%esi,4)
 8048ebf:	75 05                	jne    8048ec6 <phase_6+0x49>
 8048ec1:	e8 52 0a 00 00       	call   8049918 <explode_bomb>
 8048ec6:	83 c3 01             	add    $0x1,%ebx
 8048ec9:	83 fb 05             	cmp    $0x5,%ebx
 8048ecc:	7e e9                	jle    8048eb7 <phase_6+0x3a>
 8048ece:	66 90                	xchg   %ax,%ax
 8048ed0:	eb ca                	jmp    8048e9c <phase_6+0x1f>
 8048ed2:	8b 52 08             	mov    0x8(%edx),%edx
 8048ed5:	83 c0 01             	add    $0x1,%eax
 8048ed8:	39 c8                	cmp    %ecx,%eax
 8048eda:	75 f6                	jne    8048ed2 <phase_6+0x55>
 8048edc:	89 54 b5 e0          	mov    %edx,-0x20(%ebp,%esi,4)
 8048ee0:	83 c3 01             	add    $0x1,%ebx
 8048ee3:	83 fb 06             	cmp    $0x6,%ebx
 8048ee6:	75 07                	jne    8048eef <phase_6+0x72>
 8048ee8:	eb 1c                	jmp    8048f06 <phase_6+0x89>
 8048eea:	bb 00 00 00 00       	mov    $0x0,%ebx
 8048eef:	89 de                	mov    %ebx,%esi
 8048ef1:	8b 4c 9d c8          	mov    -0x38(%ebp,%ebx,4),%ecx
 8048ef5:	b8 01 00 00 00       	mov    $0x1,%eax
 8048efa:	ba 74 c1 04 08       	mov    $0x804c174,%edx
 8048eff:	83 f9 01             	cmp    $0x1,%ecx
 8048f02:	7f ce                	jg     8048ed2 <phase_6+0x55>
 8048f04:	eb d6                	jmp    8048edc <phase_6+0x5f>
 8048f06:	8b 5d e0             	mov    -0x20(%ebp),%ebx
 8048f09:	8b 45 e4             	mov    -0x1c(%ebp),%eax
 8048f0c:	89 43 08             	mov    %eax,0x8(%ebx)
 8048f0f:	8b 55 e8             	mov    -0x18(%ebp),%edx
 8048f12:	89 50 08             	mov    %edx,0x8(%eax)
 8048f15:	8b 45 ec             	mov    -0x14(%ebp),%eax
 8048f18:	89 42 08             	mov    %eax,0x8(%edx)
 8048f1b:	8b 55 f0             	mov    -0x10(%ebp),%edx
 8048f1e:	89 50 08             	mov    %edx,0x8(%eax)
 8048f21:	8b 45 f4             	mov    -0xc(%ebp),%eax
 8048f24:	89 42 08             	mov    %eax,0x8(%edx)
 8048f27:	c7 40 08 00 00 00 00 	movl   $0x0,0x8(%eax)
 8048f2e:	be 05 00 00 00       	mov    $0x5,%esi
 8048f33:	8b 43 08             	mov    0x8(%ebx),%eax
 8048f36:	8b 10                	mov    (%eax),%edx
 8048f38:	39 13                	cmp    %edx,(%ebx)
 8048f3a:	7d 05                	jge    8048f41 <phase_6+0xc4>
 8048f3c:	e8 d7 09 00 00       	call   8049918 <explode_bomb>
 8048f41:	8b 5b 08             	mov    0x8(%ebx),%ebx
 8048f44:	83 ee 01             	sub    $0x1,%esi
 8048f47:	75 ea                	jne    8048f33 <phase_6+0xb6>
 8048f49:	83 c4 40             	add    $0x40,%esp
 8048f4c:	5b                   	pop    %ebx
 8048f4d:	5e                   	pop    %esi
 8048f4e:	5d                   	pop    %ebp
 8048f4f:	c3                   	ret    

08048f50 <fun7>:
 8048f50:	55                   	push   %ebp
 8048f51:	89 e5                	mov    %esp,%ebp
 8048f53:	53                   	push   %ebx
 8048f54:	83 ec 14             	sub    $0x14,%esp
 8048f57:	8b 55 08             	mov    0x8(%ebp),%edx
 8048f5a:	8b 4d 0c             	mov    0xc(%ebp),%ecx
 8048f5d:	85 d2                	test   %edx,%edx
 8048f5f:	74 37                	je     8048f98 <fun7+0x48>
 8048f61:	8b 1a                	mov    (%edx),%ebx
 8048f63:	39 cb                	cmp    %ecx,%ebx
 8048f65:	7e 13                	jle    8048f7a <fun7+0x2a>
 8048f67:	89 4c 24 04          	mov    %ecx,0x4(%esp)
 8048f6b:	8b 42 04             	mov    0x4(%edx),%eax
 8048f6e:	89 04 24             	mov    %eax,(%esp)
 8048f71:	e8 da ff ff ff       	call   8048f50 <fun7>
 8048f76:	01 c0                	add    %eax,%eax
 8048f78:	eb 23                	jmp    8048f9d <fun7+0x4d>
 8048f7a:	b8 00 00 00 00       	mov    $0x0,%eax
 8048f7f:	39 cb                	cmp    %ecx,%ebx
 8048f81:	74 1a                	je     8048f9d <fun7+0x4d>
 8048f83:	89 4c 24 04          	mov    %ecx,0x4(%esp)
 8048f87:	8b 42 08             	mov    0x8(%edx),%eax
 8048f8a:	89 04 24             	mov    %eax,(%esp)
 8048f8d:	e8 be ff ff ff       	call   8048f50 <fun7>
 8048f92:	8d 44 00 01          	lea    0x1(%eax,%eax,1),%eax
 8048f96:	eb 05                	jmp    8048f9d <fun7+0x4d>
 8048f98:	b8 ff ff ff ff       	mov    $0xffffffff,%eax
 8048f9d:	83 c4 14             	add    $0x14,%esp
 8048fa0:	5b                   	pop    %ebx
 8048fa1:	5d                   	pop    %ebp
 8048fa2:	c3                   	ret    

08048fa3 <secret_phase>:
 8048fa3:	55                   	push   %ebp
 8048fa4:	89 e5                	mov    %esp,%ebp
 8048fa6:	53                   	push   %ebx
 8048fa7:	83 ec 14             	sub    $0x14,%esp
 8048faa:	e8 ab 09 00 00       	call   804995a <read_line>
 8048faf:	c7 44 24 08 0a 00 00 	movl   $0xa,0x8(%esp)
 8048fb6:	00 
 8048fb7:	c7 44 24 04 00 00 00 	movl   $0x0,0x4(%esp)
 8048fbe:	00 
 8048fbf:	89 04 24             	mov    %eax,(%esp)
 8048fc2:	e8 09 fa ff ff       	call   80489d0 <strtol@plt>
 8048fc7:	89 c3                	mov    %eax,%ebx
 8048fc9:	8d 40 ff             	lea    -0x1(%eax),%eax
 8048fcc:	3d e8 03 00 00       	cmp    $0x3e8,%eax
 8048fd1:	76 05                	jbe    8048fd8 <secret_phase+0x35>
 8048fd3:	e8 40 09 00 00       	call   8049918 <explode_bomb>
 8048fd8:	89 5c 24 04          	mov    %ebx,0x4(%esp)
 8048fdc:	c7 04 24 c0 c0 04 08 	movl   $0x804c0c0,(%esp)
 8048fe3:	e8 68 ff ff ff       	call   8048f50 <fun7>
 8048fe8:	83 f8 05             	cmp    $0x5,%eax
 8048feb:	74 05                	je     8048ff2 <secret_phase+0x4f>
 8048fed:	e8 26 09 00 00       	call   8049918 <explode_bomb>
 8048ff2:	c7 04 24 08 9f 04 08 	movl   $0x8049f08,(%esp)
 8048ff9:	e8 d2 f8 ff ff       	call   80488d0 <puts@plt>
 8048ffe:	e8 70 0a 00 00       	call   8049a73 <phase_defused>
 8049003:	83 c4 14             	add    $0x14,%esp
 8049006:	5b                   	pop    %ebx
 8049007:	5d                   	pop    %ebp
 8049008:	c3                   	ret    
 8049009:	90                   	nop
 804900a:	90                   	nop
 804900b:	90                   	nop
 804900c:	90                   	nop
 804900d:	90                   	nop
 804900e:	90                   	nop
 804900f:	90                   	nop

08049010 <sig_handler>:
 8049010:	55                   	push   %ebp
 8049011:	89 e5                	mov    %esp,%ebp
 8049013:	83 ec 18             	sub    $0x18,%esp
 8049016:	c7 04 24 68 9f 04 08 	movl   $0x8049f68,(%esp)
 804901d:	e8 ae f8 ff ff       	call   80488d0 <puts@plt>
 8049022:	c7 04 24 03 00 00 00 	movl   $0x3,(%esp)
 8049029:	e8 42 f8 ff ff       	call   8048870 <sleep@plt>
 804902e:	c7 44 24 04 bc a0 04 	movl   $0x804a0bc,0x4(%esp)
 8049035:	08 
 8049036:	c7 04 24 01 00 00 00 	movl   $0x1,(%esp)
 804903d:	e8 2e f9 ff ff       	call   8048970 <__printf_chk@plt>
 8049042:	a1 40 c7 04 08       	mov    0x804c740,%eax
 8049047:	89 04 24             	mov    %eax,(%esp)
 804904a:	e8 d1 f7 ff ff       	call   8048820 <fflush@plt>
 804904f:	c7 04 24 01 00 00 00 	movl   $0x1,(%esp)
 8049056:	e8 15 f8 ff ff       	call   8048870 <sleep@plt>
 804905b:	c7 04 24 c4 a0 04 08 	movl   $0x804a0c4,(%esp)
 8049062:	e8 69 f8 ff ff       	call   80488d0 <puts@plt>
 8049067:	c7 04 24 10 00 00 00 	movl   $0x10,(%esp)
 804906e:	e8 9d f8 ff ff       	call   8048910 <exit@plt>

08049073 <invalid_phase>:
 8049073:	55                   	push   %ebp
 8049074:	89 e5                	mov    %esp,%ebp
 8049076:	83 ec 18             	sub    $0x18,%esp
 8049079:	8b 45 08             	mov    0x8(%ebp),%eax
 804907c:	89 44 24 08          	mov    %eax,0x8(%esp)
 8049080:	c7 44 24 04 cc a0 04 	movl   $0x804a0cc,0x4(%esp)
 8049087:	08 
 8049088:	c7 04 24 01 00 00 00 	movl   $0x1,(%esp)
 804908f:	e8 dc f8 ff ff       	call   8048970 <__printf_chk@plt>
 8049094:	c7 04 24 08 00 00 00 	movl   $0x8,(%esp)
 804909b:	e8 70 f8 ff ff       	call   8048910 <exit@plt>

080490a0 <string_length>:
 80490a0:	55                   	push   %ebp
 80490a1:	89 e5                	mov    %esp,%ebp
 80490a3:	8b 55 08             	mov    0x8(%ebp),%edx
 80490a6:	b8 00 00 00 00       	mov    $0x0,%eax
 80490ab:	80 3a 00             	cmpb   $0x0,(%edx)
 80490ae:	74 09                	je     80490b9 <string_length+0x19>
 80490b0:	83 c0 01             	add    $0x1,%eax
 80490b3:	80 3c 02 00          	cmpb   $0x0,(%edx,%eax,1)
 80490b7:	75 f7                	jne    80490b0 <string_length+0x10>
 80490b9:	5d                   	pop    %ebp
 80490ba:	c3                   	ret    

080490bb <strings_not_equal>:
 80490bb:	55                   	push   %ebp
 80490bc:	89 e5                	mov    %esp,%ebp
 80490be:	83 ec 10             	sub    $0x10,%esp
 80490c1:	89 5d f4             	mov    %ebx,-0xc(%ebp)
 80490c4:	89 75 f8             	mov    %esi,-0x8(%ebp)
 80490c7:	89 7d fc             	mov    %edi,-0x4(%ebp)
 80490ca:	8b 5d 08             	mov    0x8(%ebp),%ebx
 80490cd:	8b 75 0c             	mov    0xc(%ebp),%esi
 80490d0:	89 1c 24             	mov    %ebx,(%esp)
 80490d3:	e8 c8 ff ff ff       	call   80490a0 <string_length>
 80490d8:	89 c7                	mov    %eax,%edi
 80490da:	89 34 24             	mov    %esi,(%esp)
 80490dd:	e8 be ff ff ff       	call   80490a0 <string_length>
 80490e2:	ba 01 00 00 00       	mov    $0x1,%edx
 80490e7:	39 c7                	cmp    %eax,%edi
 80490e9:	75 33                	jne    804911e <strings_not_equal+0x63>
 80490eb:	0f b6 03             	movzbl (%ebx),%eax
 80490ee:	b2 00                	mov    $0x0,%dl
 80490f0:	84 c0                	test   %al,%al
 80490f2:	74 2a                	je     804911e <strings_not_equal+0x63>
 80490f4:	b2 01                	mov    $0x1,%dl
 80490f6:	3a 06                	cmp    (%esi),%al
 80490f8:	75 24                	jne    804911e <strings_not_equal+0x63>
 80490fa:	b8 00 00 00 00       	mov    $0x0,%eax
 80490ff:	eb 08                	jmp    8049109 <strings_not_equal+0x4e>
 8049101:	83 c0 01             	add    $0x1,%eax
 8049104:	3a 14 06             	cmp    (%esi,%eax,1),%dl
 8049107:	75 10                	jne    8049119 <strings_not_equal+0x5e>
 8049109:	0f b6 54 03 01       	movzbl 0x1(%ebx,%eax,1),%edx
 804910e:	84 d2                	test   %dl,%dl
 8049110:	75 ef                	jne    8049101 <strings_not_equal+0x46>
 8049112:	ba 00 00 00 00       	mov    $0x0,%edx
 8049117:	eb 05                	jmp    804911e <strings_not_equal+0x63>
 8049119:	ba 01 00 00 00       	mov    $0x1,%edx
 804911e:	89 d0                	mov    %edx,%eax
 8049120:	8b 5d f4             	mov    -0xc(%ebp),%ebx
 8049123:	8b 75 f8             	mov    -0x8(%ebp),%esi
 8049126:	8b 7d fc             	mov    -0x4(%ebp),%edi
 8049129:	89 ec                	mov    %ebp,%esp
 804912b:	5d                   	pop    %ebp
 804912c:	c3                   	ret    

0804912d <open_clientfd>:
 804912d:	55                   	push   %ebp
 804912e:	89 e5                	mov    %esp,%ebp
 8049130:	56                   	push   %esi
 8049131:	53                   	push   %ebx
 8049132:	83 ec 30             	sub    $0x30,%esp
 8049135:	8b 75 08             	mov    0x8(%ebp),%esi
 8049138:	65 a1 14 00 00 00    	mov    %gs:0x14,%eax
 804913e:	89 45 f4             	mov    %eax,-0xc(%ebp)
 8049141:	31 c0                	xor    %eax,%eax
 8049143:	c7 44 24 08 00 00 00 	movl   $0x0,0x8(%esp)
 804914a:	00 
 804914b:	c7 44 24 04 01 00 00 	movl   $0x1,0x4(%esp)
 8049152:	00 
 8049153:	c7 04 24 02 00 00 00 	movl   $0x2,(%esp)
 804915a:	e8 41 f8 ff ff       	call   80489a0 <socket@plt>
 804915f:	89 c3                	mov    %eax,%ebx
 8049161:	85 c0                	test   %eax,%eax
 8049163:	79 18                	jns    804917d <open_clientfd+0x50>
 8049165:	c7 04 24 dd a0 04 08 	movl   $0x804a0dd,(%esp)
 804916c:	e8 5f f7 ff ff       	call   80488d0 <puts@plt>
 8049171:	c7 04 24 08 00 00 00 	movl   $0x8,(%esp)
 8049178:	e8 93 f7 ff ff       	call   8048910 <exit@plt>
 804917d:	89 34 24             	mov    %esi,(%esp)
 8049180:	e8 3b f8 ff ff       	call   80489c0 <gethostbyname@plt>
 8049185:	85 c0                	test   %eax,%eax
 8049187:	75 18                	jne    80491a1 <open_clientfd+0x74>
 8049189:	c7 04 24 eb a0 04 08 	movl   $0x804a0eb,(%esp)
 8049190:	e8 3b f7 ff ff       	call   80488d0 <puts@plt>
 8049195:	c7 04 24 08 00 00 00 	movl   $0x8,(%esp)
 804919c:	e8 6f f7 ff ff       	call   8048910 <exit@plt>
 80491a1:	8d 75 e4             	lea    -0x1c(%ebp),%esi
 80491a4:	c7 45 e4 00 00 00 00 	movl   $0x0,-0x1c(%ebp)
 80491ab:	c7 45 e8 00 00 00 00 	movl   $0x0,-0x18(%ebp)
 80491b2:	c7 45 ec 00 00 00 00 	movl   $0x0,-0x14(%ebp)
 80491b9:	c7 45 f0 00 00 00 00 	movl   $0x0,-0x10(%ebp)
 80491c0:	66 c7 45 e4 02 00    	movw   $0x2,-0x1c(%ebp)
 80491c6:	c7 44 24 0c 0c 00 00 	movl   $0xc,0xc(%esp)
 80491cd:	00 
 80491ce:	8b 50 0c             	mov    0xc(%eax),%edx
 80491d1:	89 54 24 08          	mov    %edx,0x8(%esp)
 80491d5:	8b 40 10             	mov    0x10(%eax),%eax
 80491d8:	8b 00                	mov    (%eax),%eax
 80491da:	89 44 24 04          	mov    %eax,0x4(%esp)
 80491de:	8d 45 e8             	lea    -0x18(%ebp),%eax
 80491e1:	89 04 24             	mov    %eax,(%esp)
 80491e4:	e8 07 f7 ff ff       	call   80488f0 <__memmove_chk@plt>
 80491e9:	0f b7 45 0c          	movzwl 0xc(%ebp),%eax
 80491ed:	66 c1 c8 08          	ror    $0x8,%ax
 80491f1:	66 89 45 e6          	mov    %ax,-0x1a(%ebp)
 80491f5:	c7 44 24 08 10 00 00 	movl   $0x10,0x8(%esp)
 80491fc:	00 
 80491fd:	89 74 24 04          	mov    %esi,0x4(%esp)
 8049201:	89 1c 24             	mov    %ebx,(%esp)
 8049204:	e8 d7 f7 ff ff       	call   80489e0 <connect@plt>
 8049209:	85 c0                	test   %eax,%eax
 804920b:	79 18                	jns    8049225 <open_clientfd+0xf8>
 804920d:	c7 04 24 f9 a0 04 08 	movl   $0x804a0f9,(%esp)
 8049214:	e8 b7 f6 ff ff       	call   80488d0 <puts@plt>
 8049219:	c7 04 24 08 00 00 00 	movl   $0x8,(%esp)
 8049220:	e8 eb f6 ff ff       	call   8048910 <exit@plt>
 8049225:	89 d8                	mov    %ebx,%eax
 8049227:	8b 55 f4             	mov    -0xc(%ebp),%edx
 804922a:	65 33 15 14 00 00 00 	xor    %gs:0x14,%edx
 8049231:	74 05                	je     8049238 <open_clientfd+0x10b>
 8049233:	e8 48 f6 ff ff       	call   8048880 <__stack_chk_fail@plt>
 8049238:	83 c4 30             	add    $0x30,%esp
 804923b:	5b                   	pop    %ebx
 804923c:	5e                   	pop    %esi
 804923d:	5d                   	pop    %ebp
 804923e:	c3                   	ret    

0804923f <initialize_bomb>:
 804923f:	55                   	push   %ebp
 8049240:	89 e5                	mov    %esp,%ebp
 8049242:	56                   	push   %esi
 8049243:	53                   	push   %ebx
 8049244:	83 ec 70             	sub    $0x70,%esp
 8049247:	65 a1 14 00 00 00    	mov    %gs:0x14,%eax
 804924d:	89 45 f4             	mov    %eax,-0xc(%ebp)
 8049250:	31 c0                	xor    %eax,%eax
 8049252:	c7 44 24 04 10 90 04 	movl   $0x8049010,0x4(%esp)
 8049259:	08 
 804925a:	c7 04 24 02 00 00 00 	movl   $0x2,(%esp)
 8049261:	e8 fa f5 ff ff       	call   8048860 <signal@plt>
 8049266:	c7 44 24 04 40 00 00 	movl   $0x40,0x4(%esp)
 804926d:	00 
 804926e:	8d 45 b4             	lea    -0x4c(%ebp),%eax
 8049271:	89 04 24             	mov    %eax,(%esp)
 8049274:	e8 37 f6 ff ff       	call   80488b0 <gethostname@plt>
 8049279:	85 c0                	test   %eax,%eax
 804927b:	75 13                	jne    8049290 <initialize_bomb+0x51>
 804927d:	a1 e0 c5 04 08       	mov    0x804c5e0,%eax
 8049282:	bb 00 00 00 00       	mov    $0x0,%ebx
 8049287:	8d 75 b4             	lea    -0x4c(%ebp),%esi
 804928a:	85 c0                	test   %eax,%eax
 804928c:	75 1a                	jne    80492a8 <initialize_bomb+0x69>
 804928e:	eb 7a                	jmp    804930a <initialize_bomb+0xcb>
 8049290:	c7 04 24 07 a1 04 08 	movl   $0x804a107,(%esp)
 8049297:	e8 34 f6 ff ff       	call   80488d0 <puts@plt>
 804929c:	c7 04 24 08 00 00 00 	movl   $0x8,(%esp)
 80492a3:	e8 68 f6 ff ff       	call   8048910 <exit@plt>
 80492a8:	c7 44 24 10 01 00 00 	movl   $0x1,0x10(%esp)
 80492af:	00 
 80492b0:	c7 44 24 0c 00 00 00 	movl   $0x0,0xc(%esp)
 80492b7:	00 
 80492b8:	c7 44 24 08 01 00 00 	movl   $0x1,0x8(%esp)
 80492bf:	00 
 80492c0:	89 74 24 04          	mov    %esi,0x4(%esp)
 80492c4:	89 04 24             	mov    %eax,(%esp)
 80492c7:	e8 b6 08 00 00       	call   8049b82 <wc_strncmp>
 80492cc:	85 c0                	test   %eax,%eax
 80492ce:	74 10                	je     80492e0 <initialize_bomb+0xa1>
 80492d0:	83 c3 01             	add    $0x1,%ebx
 80492d3:	8b 04 9d e0 c5 04 08 	mov    0x804c5e0(,%ebx,4),%eax
 80492da:	85 c0                	test   %eax,%eax
 80492dc:	75 ca                	jne    80492a8 <initialize_bomb+0x69>
 80492de:	eb 2a                	jmp    804930a <initialize_bomb+0xcb>
 80492e0:	c7 44 24 04 50 00 00 	movl   $0x50,0x4(%esp)
 80492e7:	00 
 80492e8:	c7 04 24 14 a1 04 08 	movl   $0x804a114,(%esp)
 80492ef:	e8 39 fe ff ff       	call   804912d <open_clientfd>
 80492f4:	89 04 24             	mov    %eax,(%esp)
 80492f7:	e8 f4 f6 ff ff       	call   80489f0 <close@plt>
 80492fc:	8b 45 f4             	mov    -0xc(%ebp),%eax
 80492ff:	65 33 05 14 00 00 00 	xor    %gs:0x14,%eax
 8049306:	74 1f                	je     8049327 <initialize_bomb+0xe8>
 8049308:	eb 18                	jmp    8049322 <initialize_bomb+0xe3>
 804930a:	c7 04 24 28 a1 04 08 	movl   $0x804a128,(%esp)
 8049311:	e8 ba f5 ff ff       	call   80488d0 <puts@plt>
 8049316:	c7 04 24 08 00 00 00 	movl   $0x8,(%esp)
 804931d:	e8 ee f5 ff ff       	call   8048910 <exit@plt>
 8049322:	e8 59 f5 ff ff       	call   8048880 <__stack_chk_fail@plt>
 8049327:	83 c4 70             	add    $0x70,%esp
 804932a:	5b                   	pop    %ebx
 804932b:	5e                   	pop    %esi
 804932c:	5d                   	pop    %ebp
 804932d:	c3                   	ret    

0804932e <blank_line>:
 804932e:	55                   	push   %ebp
 804932f:	89 e5                	mov    %esp,%ebp
 8049331:	56                   	push   %esi
 8049332:	53                   	push   %ebx
 8049333:	8b 75 08             	mov    0x8(%ebp),%esi
 8049336:	eb 14                	jmp    804934c <blank_line+0x1e>
 8049338:	e8 d3 f6 ff ff       	call   8048a10 <__ctype_b_loc@plt>
 804933d:	83 c6 01             	add    $0x1,%esi
 8049340:	0f be db             	movsbl %bl,%ebx
 8049343:	8b 00                	mov    (%eax),%eax
 8049345:	f6 44 58 01 20       	testb  $0x20,0x1(%eax,%ebx,2)
 804934a:	74 0e                	je     804935a <blank_line+0x2c>
 804934c:	0f b6 1e             	movzbl (%esi),%ebx
 804934f:	84 db                	test   %bl,%bl
 8049351:	75 e5                	jne    8049338 <blank_line+0xa>
 8049353:	b8 01 00 00 00       	mov    $0x1,%eax
 8049358:	eb 05                	jmp    804935f <blank_line+0x31>
 804935a:	b8 00 00 00 00       	mov    $0x0,%eax
 804935f:	5b                   	pop    %ebx
 8049360:	5e                   	pop    %esi
 8049361:	5d                   	pop    %ebp
 8049362:	c3                   	ret    

08049363 <skip>:
 8049363:	55                   	push   %ebp
 8049364:	89 e5                	mov    %esp,%ebp
 8049366:	53                   	push   %ebx
 8049367:	83 ec 14             	sub    $0x14,%esp
 804936a:	a1 50 c7 04 08       	mov    0x804c750,%eax
 804936f:	89 44 24 08          	mov    %eax,0x8(%esp)
 8049373:	c7 44 24 04 50 00 00 	movl   $0x50,0x4(%esp)
 804937a:	00 
 804937b:	a1 4c c7 04 08       	mov    0x804c74c,%eax
 8049380:	8d 04 80             	lea    (%eax,%eax,4),%eax
 8049383:	c1 e0 04             	shl    $0x4,%eax
 8049386:	05 60 c7 04 08       	add    $0x804c760,%eax
 804938b:	89 04 24             	mov    %eax,(%esp)
 804938e:	e8 ad f4 ff ff       	call   8048840 <fgets@plt>
 8049393:	89 c3                	mov    %eax,%ebx
 8049395:	85 c0                	test   %eax,%eax
 8049397:	74 0c                	je     80493a5 <skip+0x42>
 8049399:	89 04 24             	mov    %eax,(%esp)
 804939c:	e8 8d ff ff ff       	call   804932e <blank_line>
 80493a1:	85 c0                	test   %eax,%eax
 80493a3:	75 c5                	jne    804936a <skip+0x7>
 80493a5:	89 d8                	mov    %ebx,%eax
 80493a7:	83 c4 14             	add    $0x14,%esp
 80493aa:	5b                   	pop    %ebx
 80493ab:	5d                   	pop    %ebp
 80493ac:	c3                   	ret    

080493ad <send_msg_sendmail>:
 80493ad:	55                   	push   %ebp
 80493ae:	89 e5                	mov    %esp,%ebp
 80493b0:	57                   	push   %edi
 80493b1:	56                   	push   %esi
 80493b2:	53                   	push   %ebx
 80493b3:	81 ec 9c 00 00 00    	sub    $0x9c,%esp
 80493b9:	8b 5d 08             	mov    0x8(%ebp),%ebx
 80493bc:	65 a1 14 00 00 00    	mov    %gs:0x14,%eax
 80493c2:	89 45 e4             	mov    %eax,-0x1c(%ebp)
 80493c5:	31 c0                	xor    %eax,%eax
 80493c7:	c7 04 24 00 00 00 00 	movl   $0x0,(%esp)
 80493ce:	e8 5d f4 ff ff       	call   8048830 <dup@plt>
 80493d3:	89 45 80             	mov    %eax,-0x80(%ebp)
 80493d6:	83 f8 ff             	cmp    $0xffffffff,%eax
 80493d9:	75 18                	jne    80493f3 <send_msg_sendmail+0x46>
 80493db:	c7 04 24 47 a1 04 08 	movl   $0x804a147,(%esp)
 80493e2:	e8 e9 f4 ff ff       	call   80488d0 <puts@plt>
 80493e7:	c7 04 24 08 00 00 00 	movl   $0x8,(%esp)
 80493ee:	e8 1d f5 ff ff       	call   8048910 <exit@plt>
 80493f3:	c7 04 24 00 00 00 00 	movl   $0x0,(%esp)
 80493fa:	e8 f1 f5 ff ff       	call   80489f0 <close@plt>
 80493ff:	83 f8 ff             	cmp    $0xffffffff,%eax
 8049402:	75 18                	jne    804941c <send_msg_sendmail+0x6f>
 8049404:	c7 04 24 5b a1 04 08 	movl   $0x804a15b,(%esp)
 804940b:	e8 c0 f4 ff ff       	call   80488d0 <puts@plt>
 8049410:	c7 04 24 08 00 00 00 	movl   $0x8,(%esp)
 8049417:	e8 f4 f4 ff ff       	call   8048910 <exit@plt>
 804941c:	e8 6f f5 ff ff       	call   8048990 <tmpfile@plt>
 8049421:	89 45 84             	mov    %eax,-0x7c(%ebp)
 8049424:	85 c0                	test   %eax,%eax
 8049426:	75 18                	jne    8049440 <send_msg_sendmail+0x93>
 8049428:	c7 04 24 6e a1 04 08 	movl   $0x804a16e,(%esp)
 804942f:	e8 9c f4 ff ff       	call   80488d0 <puts@plt>
 8049434:	c7 04 24 08 00 00 00 	movl   $0x8,(%esp)
 804943b:	e8 d0 f4 ff ff       	call   8048910 <exit@plt>
 8049440:	8b 7d 84             	mov    -0x7c(%ebp),%edi
 8049443:	89 7c 24 0c          	mov    %edi,0xc(%esp)
 8049447:	c7 44 24 08 1b 00 00 	movl   $0x1b,0x8(%esp)
 804944e:	00 
 804944f:	c7 44 24 04 01 00 00 	movl   $0x1,0x4(%esp)
 8049456:	00 
 8049457:	c7 04 24 83 a1 04 08 	movl   $0x804a183,(%esp)
 804945e:	e8 3d f4 ff ff       	call   80488a0 <fwrite@plt>
 8049463:	8b 45 84             	mov    -0x7c(%ebp),%eax
 8049466:	89 44 24 04          	mov    %eax,0x4(%esp)
 804946a:	c7 04 24 0a 00 00 00 	movl   $0xa,(%esp)
 8049471:	e8 0a f5 ff ff       	call   8048980 <fputc@plt>
 8049476:	c7 04 24 00 00 00 00 	movl   $0x0,(%esp)
 804947d:	e8 8e f3 ff ff       	call   8048810 <cuserid@plt>
 8049482:	85 c0                	test   %eax,%eax
 8049484:	75 13                	jne    8049499 <send_msg_sendmail+0xec>
 8049486:	c7 45 94 6e 6f 62 6f 	movl   $0x6f626f6e,-0x6c(%ebp)
 804948d:	66 c7 45 98 64 79    	movw   $0x7964,-0x68(%ebp)
 8049493:	c6 45 9a 00          	movb   $0x0,-0x66(%ebp)
 8049497:	eb 17                	jmp    80494b0 <send_msg_sendmail+0x103>
 8049499:	c7 44 24 08 50 00 00 	movl   $0x50,0x8(%esp)
 80494a0:	00 
 80494a1:	89 44 24 04          	mov    %eax,0x4(%esp)
 80494a5:	8d 45 94             	lea    -0x6c(%ebp),%eax
 80494a8:	89 04 24             	mov    %eax,(%esp)
 80494ab:	e8 b0 f4 ff ff       	call   8048960 <__strcpy_chk@plt>
 80494b0:	85 db                	test   %ebx,%ebx
 80494b2:	b8 36 a1 04 08       	mov    $0x804a136,%eax
 80494b7:	ba 3e a1 04 08       	mov    $0x804a13e,%edx
 80494bc:	0f 44 c2             	cmove  %edx,%eax
 80494bf:	8b 15 4c c7 04 08    	mov    0x804c74c,%edx
 80494c5:	89 54 24 1c          	mov    %edx,0x1c(%esp)
 80494c9:	89 44 24 18          	mov    %eax,0x18(%esp)
 80494cd:	8d 45 94             	lea    -0x6c(%ebp),%eax
 80494d0:	89 44 24 14          	mov    %eax,0x14(%esp)
 80494d4:	a1 c0 c5 04 08       	mov    0x804c5c0,%eax
 80494d9:	89 44 24 10          	mov    %eax,0x10(%esp)
 80494dd:	c7 44 24 0c c0 c1 04 	movl   $0x804c1c0,0xc(%esp)
 80494e4:	08 
 80494e5:	c7 44 24 08 9f a1 04 	movl   $0x804a19f,0x8(%esp)
 80494ec:	08 
 80494ed:	c7 44 24 04 01 00 00 	movl   $0x1,0x4(%esp)
 80494f4:	00 
 80494f5:	8b 45 84             	mov    -0x7c(%ebp),%eax
 80494f8:	89 04 24             	mov    %eax,(%esp)
 80494fb:	e8 b0 f4 ff ff       	call   80489b0 <__fprintf_chk@plt>
 8049500:	83 3d 4c c7 04 08 00 	cmpl   $0x0,0x804c74c
 8049507:	7e 50                	jle    8049559 <send_msg_sendmail+0x1ac>
 8049509:	be 60 c7 04 08       	mov    $0x804c760,%esi
 804950e:	bb 00 00 00 00       	mov    $0x0,%ebx
 8049513:	83 c3 01             	add    $0x1,%ebx
 8049516:	89 74 24 1c          	mov    %esi,0x1c(%esp)
 804951a:	89 5c 24 18          	mov    %ebx,0x18(%esp)
 804951e:	8d 45 94             	lea    -0x6c(%ebp),%eax
 8049521:	89 44 24 14          	mov    %eax,0x14(%esp)
 8049525:	a1 c0 c5 04 08       	mov    0x804c5c0,%eax
 804952a:	89 44 24 10          	mov    %eax,0x10(%esp)
 804952e:	c7 44 24 0c c0 c1 04 	movl   $0x804c1c0,0xc(%esp)
 8049535:	08 
 8049536:	c7 44 24 08 bb a1 04 	movl   $0x804a1bb,0x8(%esp)
 804953d:	08 
 804953e:	c7 44 24 04 01 00 00 	movl   $0x1,0x4(%esp)
 8049545:	00 
 8049546:	89 3c 24             	mov    %edi,(%esp)
 8049549:	e8 62 f4 ff ff       	call   80489b0 <__fprintf_chk@plt>
 804954e:	83 c6 50             	add    $0x50,%esi
 8049551:	39 1d 4c c7 04 08    	cmp    %ebx,0x804c74c
 8049557:	7f ba                	jg     8049513 <send_msg_sendmail+0x166>
 8049559:	8b 45 84             	mov    -0x7c(%ebp),%eax
 804955c:	89 04 24             	mov    %eax,(%esp)
 804955f:	e8 2c f3 ff ff       	call   8048890 <rewind@plt>
 8049564:	c7 44 24 18 d7 a1 04 	movl   $0x804a1d7,0x18(%esp)
 804956b:	08 
 804956c:	c7 44 24 14 ee a1 04 	movl   $0x804a1ee,0x14(%esp)
 8049573:	08 
 8049574:	c7 44 24 10 f5 a1 04 	movl   $0x804a1f5,0x10(%esp)
 804957b:	08 
 804957c:	c7 44 24 0c 0c a2 04 	movl   $0x804a20c,0xc(%esp)
 8049583:	08 
 8049584:	c7 44 24 08 50 00 00 	movl   $0x50,0x8(%esp)
 804958b:	00 
 804958c:	c7 44 24 04 01 00 00 	movl   $0x1,0x4(%esp)
 8049593:	00 
 8049594:	c7 04 24 a0 cd 04 08 	movl   $0x804cda0,(%esp)
 804959b:	e8 80 f4 ff ff       	call   8048a20 <__sprintf_chk@plt>
 80495a0:	c7 04 24 a0 cd 04 08 	movl   $0x804cda0,(%esp)
 80495a7:	e8 34 f3 ff ff       	call   80488e0 <system@plt>
 80495ac:	85 c0                	test   %eax,%eax
 80495ae:	74 18                	je     80495c8 <send_msg_sendmail+0x21b>
 80495b0:	c7 04 24 15 a2 04 08 	movl   $0x804a215,(%esp)
 80495b7:	e8 14 f3 ff ff       	call   80488d0 <puts@plt>
 80495bc:	c7 04 24 08 00 00 00 	movl   $0x8,(%esp)
 80495c3:	e8 48 f3 ff ff       	call   8048910 <exit@plt>
 80495c8:	8b 45 84             	mov    -0x7c(%ebp),%eax
 80495cb:	89 04 24             	mov    %eax,(%esp)
 80495ce:	e8 7d f2 ff ff       	call   8048850 <fclose@plt>
 80495d3:	85 c0                	test   %eax,%eax
 80495d5:	74 18                	je     80495ef <send_msg_sendmail+0x242>
 80495d7:	c7 04 24 2f a2 04 08 	movl   $0x804a22f,(%esp)
 80495de:	e8 ed f2 ff ff       	call   80488d0 <puts@plt>
 80495e3:	c7 04 24 08 00 00 00 	movl   $0x8,(%esp)
 80495ea:	e8 21 f3 ff ff       	call   8048910 <exit@plt>
 80495ef:	8b 45 80             	mov    -0x80(%ebp),%eax
 80495f2:	89 04 24             	mov    %eax,(%esp)
 80495f5:	e8 36 f2 ff ff       	call   8048830 <dup@plt>
 80495fa:	85 c0                	test   %eax,%eax
 80495fc:	74 18                	je     8049616 <send_msg_sendmail+0x269>
 80495fe:	c7 04 24 48 a2 04 08 	movl   $0x804a248,(%esp)
 8049605:	e8 c6 f2 ff ff       	call   80488d0 <puts@plt>
 804960a:	c7 04 24 08 00 00 00 	movl   $0x8,(%esp)
 8049611:	e8 fa f2 ff ff       	call   8048910 <exit@plt>
 8049616:	8b 45 80             	mov    -0x80(%ebp),%eax
 8049619:	89 04 24             	mov    %eax,(%esp)
 804961c:	e8 cf f3 ff ff       	call   80489f0 <close@plt>
 8049621:	85 c0                	test   %eax,%eax
 8049623:	74 18                	je     804963d <send_msg_sendmail+0x290>
 8049625:	c7 04 24 63 a2 04 08 	movl   $0x804a263,(%esp)
 804962c:	e8 9f f2 ff ff       	call   80488d0 <puts@plt>
 8049631:	c7 04 24 08 00 00 00 	movl   $0x8,(%esp)
 8049638:	e8 d3 f2 ff ff       	call   8048910 <exit@plt>
 804963d:	8b 45 e4             	mov    -0x1c(%ebp),%eax
 8049640:	65 33 05 14 00 00 00 	xor    %gs:0x14,%eax
 8049647:	74 05                	je     804964e <send_msg_sendmail+0x2a1>
 8049649:	e8 32 f2 ff ff       	call   8048880 <__stack_chk_fail@plt>
 804964e:	81 c4 9c 00 00 00    	add    $0x9c,%esp
 8049654:	5b                   	pop    %ebx
 8049655:	5e                   	pop    %esi
 8049656:	5f                   	pop    %edi
 8049657:	5d                   	pop    %ebp
 8049658:	c3                   	ret    

08049659 <send_msg_socket>:
 8049659:	55                   	push   %ebp
 804965a:	89 e5                	mov    %esp,%ebp
 804965c:	57                   	push   %edi
 804965d:	56                   	push   %esi
 804965e:	53                   	push   %ebx
 804965f:	81 ec dc 00 00 00    	sub    $0xdc,%esp
 8049665:	8b 75 08             	mov    0x8(%ebp),%esi
 8049668:	65 a1 14 00 00 00    	mov    %gs:0x14,%eax
 804966e:	89 45 e4             	mov    %eax,-0x1c(%ebp)
 8049671:	31 c0                	xor    %eax,%eax
 8049673:	c7 44 24 04 4b 02 00 	movl   $0x24b,0x4(%esp)
 804967a:	00 
 804967b:	c7 04 24 d7 a1 04 08 	movl   $0x804a1d7,(%esp)
 8049682:	e8 a6 fa ff ff       	call   804912d <open_clientfd>
 8049687:	89 c3                	mov    %eax,%ebx
 8049689:	85 c0                	test   %eax,%eax
 804968b:	79 18                	jns    80496a5 <send_msg_socket+0x4c>
 804968d:	c7 04 24 a0 9f 04 08 	movl   $0x8049fa0,(%esp)
 8049694:	e8 37 f2 ff ff       	call   80488d0 <puts@plt>
 8049699:	c7 04 24 08 00 00 00 	movl   $0x8,(%esp)
 80496a0:	e8 6b f2 ff ff       	call   8048910 <exit@plt>
 80496a5:	c7 44 24 04 40 00 00 	movl   $0x40,0x4(%esp)
 80496ac:	00 
 80496ad:	8d 45 a4             	lea    -0x5c(%ebp),%eax
 80496b0:	89 04 24             	mov    %eax,(%esp)
 80496b3:	e8 f8 f1 ff ff       	call   80488b0 <gethostname@plt>
 80496b8:	85 c0                	test   %eax,%eax
 80496ba:	74 18                	je     80496d4 <send_msg_socket+0x7b>
 80496bc:	c7 04 24 07 a1 04 08 	movl   $0x804a107,(%esp)
 80496c3:	e8 08 f2 ff ff       	call   80488d0 <puts@plt>
 80496c8:	c7 04 24 08 00 00 00 	movl   $0x8,(%esp)
 80496cf:	e8 3c f2 ff ff       	call   8048910 <exit@plt>
 80496d4:	c7 44 24 04 7a a2 04 	movl   $0x804a27a,0x4(%esp)
 80496db:	08 
 80496dc:	89 1c 24             	mov    %ebx,(%esp)
 80496df:	e8 3c f2 ff ff       	call   8048920 <fdopen@plt>
 80496e4:	89 c7                	mov    %eax,%edi
 80496e6:	c7 04 24 00 00 00 00 	movl   $0x0,(%esp)
 80496ed:	e8 1e f1 ff ff       	call   8048810 <cuserid@plt>
 80496f2:	85 c0                	test   %eax,%eax
 80496f4:	75 1c                	jne    8049712 <send_msg_socket+0xb9>
 80496f6:	c7 85 54 ff ff ff 6e 	movl   $0x6f626f6e,-0xac(%ebp)
 80496fd:	6f 62 6f 
 8049700:	66 c7 85 58 ff ff ff 	movw   $0x7964,-0xa8(%ebp)
 8049707:	64 79 
 8049709:	c6 85 5a ff ff ff 00 	movb   $0x0,-0xa6(%ebp)
 8049710:	eb 1a                	jmp    804972c <send_msg_socket+0xd3>
 8049712:	c7 44 24 08 50 00 00 	movl   $0x50,0x8(%esp)
 8049719:	00 
 804971a:	89 44 24 04          	mov    %eax,0x4(%esp)
 804971e:	8d 85 54 ff ff ff    	lea    -0xac(%ebp),%eax
 8049724:	89 04 24             	mov    %eax,(%esp)
 8049727:	e8 34 f2 ff ff       	call   8048960 <__strcpy_chk@plt>
 804972c:	89 bd 44 ff ff ff    	mov    %edi,-0xbc(%ebp)
 8049732:	8d 5d a4             	lea    -0x5c(%ebp),%ebx
 8049735:	89 5c 24 0c          	mov    %ebx,0xc(%esp)
 8049739:	c7 44 24 08 7d a2 04 	movl   $0x804a27d,0x8(%esp)
 8049740:	08 
 8049741:	c7 44 24 04 01 00 00 	movl   $0x1,0x4(%esp)
 8049748:	00 
 8049749:	89 3c 24             	mov    %edi,(%esp)
 804974c:	e8 5f f2 ff ff       	call   80489b0 <__fprintf_chk@plt>
 8049751:	89 5c 24 10          	mov    %ebx,0x10(%esp)
 8049755:	8d 85 54 ff ff ff    	lea    -0xac(%ebp),%eax
 804975b:	89 44 24 0c          	mov    %eax,0xc(%esp)
 804975f:	c7 44 24 08 86 a2 04 	movl   $0x804a286,0x8(%esp)
 8049766:	08 
 8049767:	c7 44 24 04 01 00 00 	movl   $0x1,0x4(%esp)
 804976e:	00 
 804976f:	89 3c 24             	mov    %edi,(%esp)
 8049772:	e8 39 f2 ff ff       	call   80489b0 <__fprintf_chk@plt>
 8049777:	c7 44 24 10 d7 a1 04 	movl   $0x804a1d7,0x10(%esp)
 804977e:	08 
 804977f:	c7 44 24 0c ee a1 04 	movl   $0x804a1ee,0xc(%esp)
 8049786:	08 
 8049787:	c7 44 24 08 9a a2 04 	movl   $0x804a29a,0x8(%esp)
 804978e:	08 
 804978f:	c7 44 24 04 01 00 00 	movl   $0x1,0x4(%esp)
 8049796:	00 
 8049797:	89 3c 24             	mov    %edi,(%esp)
 804979a:	e8 11 f2 ff ff       	call   80489b0 <__fprintf_chk@plt>
 804979f:	89 7c 24 0c          	mov    %edi,0xc(%esp)
 80497a3:	c7 44 24 08 05 00 00 	movl   $0x5,0x8(%esp)
 80497aa:	00 
 80497ab:	c7 44 24 04 01 00 00 	movl   $0x1,0x4(%esp)
 80497b2:	00 
 80497b3:	c7 04 24 ac a2 04 08 	movl   $0x804a2ac,(%esp)
 80497ba:	e8 e1 f0 ff ff       	call   80488a0 <fwrite@plt>
 80497bf:	89 7c 24 0c          	mov    %edi,0xc(%esp)
 80497c3:	c7 44 24 08 1b 00 00 	movl   $0x1b,0x8(%esp)
 80497ca:	00 
 80497cb:	c7 44 24 04 01 00 00 	movl   $0x1,0x4(%esp)
 80497d2:	00 
 80497d3:	c7 04 24 83 a1 04 08 	movl   $0x804a183,(%esp)
 80497da:	e8 c1 f0 ff ff       	call   80488a0 <fwrite@plt>
 80497df:	89 7c 24 04          	mov    %edi,0x4(%esp)
 80497e3:	c7 04 24 0a 00 00 00 	movl   $0xa,(%esp)
 80497ea:	e8 91 f1 ff ff       	call   8048980 <fputc@plt>
 80497ef:	85 f6                	test   %esi,%esi
 80497f1:	b8 36 a1 04 08       	mov    $0x804a136,%eax
 80497f6:	ba 3e a1 04 08       	mov    $0x804a13e,%edx
 80497fb:	0f 44 c2             	cmove  %edx,%eax
 80497fe:	8b 15 4c c7 04 08    	mov    0x804c74c,%edx
 8049804:	89 54 24 1c          	mov    %edx,0x1c(%esp)
 8049808:	89 44 24 18          	mov    %eax,0x18(%esp)
 804980c:	8d 85 54 ff ff ff    	lea    -0xac(%ebp),%eax
 8049812:	89 44 24 14          	mov    %eax,0x14(%esp)
 8049816:	a1 c0 c5 04 08       	mov    0x804c5c0,%eax
 804981b:	89 44 24 10          	mov    %eax,0x10(%esp)
 804981f:	c7 44 24 0c c0 c1 04 	movl   $0x804c1c0,0xc(%esp)
 8049826:	08 
 8049827:	c7 44 24 08 9f a1 04 	movl   $0x804a19f,0x8(%esp)
 804982e:	08 
 804982f:	c7 44 24 04 01 00 00 	movl   $0x1,0x4(%esp)
 8049836:	00 
 8049837:	89 3c 24             	mov    %edi,(%esp)
 804983a:	e8 71 f1 ff ff       	call   80489b0 <__fprintf_chk@plt>
 804983f:	83 3d 4c c7 04 08 00 	cmpl   $0x0,0x804c74c
 8049846:	7e 59                	jle    80498a1 <send_msg_socket+0x248>
 8049848:	be 60 c7 04 08       	mov    $0x804c760,%esi
 804984d:	bb 00 00 00 00       	mov    $0x0,%ebx
 8049852:	83 c3 01             	add    $0x1,%ebx
 8049855:	89 74 24 1c          	mov    %esi,0x1c(%esp)
 8049859:	89 5c 24 18          	mov    %ebx,0x18(%esp)
 804985d:	8d 85 54 ff ff ff    	lea    -0xac(%ebp),%eax
 8049863:	89 44 24 14          	mov    %eax,0x14(%esp)
 8049867:	a1 c0 c5 04 08       	mov    0x804c5c0,%eax
 804986c:	89 44 24 10          	mov    %eax,0x10(%esp)
 8049870:	c7 44 24 0c c0 c1 04 	movl   $0x804c1c0,0xc(%esp)
 8049877:	08 
 8049878:	c7 44 24 08 bb a1 04 	movl   $0x804a1bb,0x8(%esp)
 804987f:	08 
 8049880:	c7 44 24 04 01 00 00 	movl   $0x1,0x4(%esp)
 8049887:	00 
 8049888:	8b 85 44 ff ff ff    	mov    -0xbc(%ebp),%eax
 804988e:	89 04 24             	mov    %eax,(%esp)
 8049891:	e8 1a f1 ff ff       	call   80489b0 <__fprintf_chk@plt>
 8049896:	83 c6 50             	add    $0x50,%esi
 8049899:	39 1d 4c c7 04 08    	cmp    %ebx,0x804c74c
 804989f:	7f b1                	jg     8049852 <send_msg_socket+0x1f9>
 80498a1:	89 7c 24 0c          	mov    %edi,0xc(%esp)
 80498a5:	c7 44 24 08 05 00 00 	movl   $0x5,0x8(%esp)
 80498ac:	00 
 80498ad:	c7 44 24 04 01 00 00 	movl   $0x1,0x4(%esp)
 80498b4:	00 
 80498b5:	c7 04 24 b2 a2 04 08 	movl   $0x804a2b2,(%esp)
 80498bc:	e8 df ef ff ff       	call   80488a0 <fwrite@plt>
 80498c1:	89 7c 24 0c          	mov    %edi,0xc(%esp)
 80498c5:	c7 44 24 08 05 00 00 	movl   $0x5,0x8(%esp)
 80498cc:	00 
 80498cd:	c7 44 24 04 01 00 00 	movl   $0x1,0x4(%esp)
 80498d4:	00 
 80498d5:	c7 04 24 b8 a2 04 08 	movl   $0x804a2b8,(%esp)
 80498dc:	e8 bf ef ff ff       	call   80488a0 <fwrite@plt>
 80498e1:	89 3c 24             	mov    %edi,(%esp)
 80498e4:	e8 67 ef ff ff       	call   8048850 <fclose@plt>
 80498e9:	8b 45 e4             	mov    -0x1c(%ebp),%eax
 80498ec:	65 33 05 14 00 00 00 	xor    %gs:0x14,%eax
 80498f3:	74 05                	je     80498fa <send_msg_socket+0x2a1>
 80498f5:	e8 86 ef ff ff       	call   8048880 <__stack_chk_fail@plt>
 80498fa:	81 c4 dc 00 00 00    	add    $0xdc,%esp
 8049900:	5b                   	pop    %ebx
 8049901:	5e                   	pop    %esi
 8049902:	5f                   	pop    %edi
 8049903:	5d                   	pop    %ebp
 8049904:	c3                   	ret    

08049905 <send_msg>:
 8049905:	55                   	push   %ebp
 8049906:	89 e5                	mov    %esp,%ebp
 8049908:	83 ec 18             	sub    $0x18,%esp
 804990b:	8b 45 08             	mov    0x8(%ebp),%eax
 804990e:	89 04 24             	mov    %eax,(%esp)
 8049911:	e8 43 fd ff ff       	call   8049659 <send_msg_socket>
 8049916:	c9                   	leave  
 8049917:	c3                   	ret    

08049918 <explode_bomb>:
 8049918:	55                   	push   %ebp
 8049919:	89 e5                	mov    %esp,%ebp
 804991b:	83 ec 18             	sub    $0x18,%esp
 804991e:	c7 04 24 be a2 04 08 	movl   $0x804a2be,(%esp)
 8049925:	e8 a6 ef ff ff       	call   80488d0 <puts@plt>
 804992a:	c7 04 24 c7 a2 04 08 	movl   $0x804a2c7,(%esp)
 8049931:	e8 9a ef ff ff       	call   80488d0 <puts@plt>
 8049936:	c7 04 24 00 00 00 00 	movl   $0x0,(%esp)
 804993d:	e8 c3 ff ff ff       	call   8049905 <send_msg>
 8049942:	c7 04 24 c8 9f 04 08 	movl   $0x8049fc8,(%esp)
 8049949:	e8 82 ef ff ff       	call   80488d0 <puts@plt>
 804994e:	c7 04 24 08 00 00 00 	movl   $0x8,(%esp)
 8049955:	e8 b6 ef ff ff       	call   8048910 <exit@plt>

0804995a <read_line>:
 804995a:	55                   	push   %ebp
 804995b:	89 e5                	mov    %esp,%ebp
 804995d:	57                   	push   %edi
 804995e:	53                   	push   %ebx
 804995f:	83 ec 10             	sub    $0x10,%esp
 8049962:	e8 fc f9 ff ff       	call   8049363 <skip>
 8049967:	85 c0                	test   %eax,%eax
 8049969:	75 5e                	jne    80499c9 <read_line+0x6f>
 804996b:	a1 20 c7 04 08       	mov    0x804c720,%eax
 8049970:	39 05 50 c7 04 08    	cmp    %eax,0x804c750
 8049976:	75 11                	jne    8049989 <read_line+0x2f>
 8049978:	c7 04 24 de a2 04 08 	movl   $0x804a2de,(%esp)
 804997f:	e8 4c ef ff ff       	call   80488d0 <puts@plt>
 8049984:	e8 8f ff ff ff       	call   8049918 <explode_bomb>
 8049989:	c7 04 24 fc a2 04 08 	movl   $0x804a2fc,(%esp)
 8049990:	e8 2b ef ff ff       	call   80488c0 <getenv@plt>
 8049995:	85 c0                	test   %eax,%eax
 8049997:	74 0c                	je     80499a5 <read_line+0x4b>
 8049999:	c7 04 24 00 00 00 00 	movl   $0x0,(%esp)
 80499a0:	e8 6b ef ff ff       	call   8048910 <exit@plt>
 80499a5:	a1 20 c7 04 08       	mov    0x804c720,%eax
 80499aa:	a3 50 c7 04 08       	mov    %eax,0x804c750
 80499af:	e8 af f9 ff ff       	call   8049363 <skip>
 80499b4:	85 c0                	test   %eax,%eax
 80499b6:	75 11                	jne    80499c9 <read_line+0x6f>
 80499b8:	c7 04 24 de a2 04 08 	movl   $0x804a2de,(%esp)
 80499bf:	e8 0c ef ff ff       	call   80488d0 <puts@plt>
 80499c4:	e8 4f ff ff ff       	call   8049918 <explode_bomb>
 80499c9:	8b 15 4c c7 04 08    	mov    0x804c74c,%edx
 80499cf:	8d 1c 92             	lea    (%edx,%edx,4),%ebx
 80499d2:	c1 e3 04             	shl    $0x4,%ebx
 80499d5:	81 c3 60 c7 04 08    	add    $0x804c760,%ebx
 80499db:	89 df                	mov    %ebx,%edi
 80499dd:	b8 00 00 00 00       	mov    $0x0,%eax
 80499e2:	b9 ff ff ff ff       	mov    $0xffffffff,%ecx
 80499e7:	f2 ae                	repnz scas %es:(%edi),%al
 80499e9:	f7 d1                	not    %ecx
 80499eb:	83 e9 01             	sub    $0x1,%ecx
 80499ee:	83 f9 4f             	cmp    $0x4f,%ecx
 80499f1:	75 11                	jne    8049a04 <read_line+0xaa>
 80499f3:	c7 04 24 07 a3 04 08 	movl   $0x804a307,(%esp)
 80499fa:	e8 d1 ee ff ff       	call   80488d0 <puts@plt>
 80499ff:	e8 14 ff ff ff       	call   8049918 <explode_bomb>
 8049a04:	8d 04 92             	lea    (%edx,%edx,4),%eax
 8049a07:	c1 e0 04             	shl    $0x4,%eax
 8049a0a:	c6 84 01 5f c7 04 08 	movb   $0x0,0x804c75f(%ecx,%eax,1)
 8049a11:	00 
 8049a12:	83 c2 01             	add    $0x1,%edx
 8049a15:	89 15 4c c7 04 08    	mov    %edx,0x804c74c
 8049a1b:	89 d8                	mov    %ebx,%eax
 8049a1d:	83 c4 10             	add    $0x10,%esp
 8049a20:	5b                   	pop    %ebx
 8049a21:	5f                   	pop    %edi
 8049a22:	5d                   	pop    %ebp
 8049a23:	c3                   	ret    

08049a24 <read_six_numbers>:
 8049a24:	55                   	push   %ebp
 8049a25:	89 e5                	mov    %esp,%ebp
 8049a27:	83 ec 28             	sub    $0x28,%esp
 8049a2a:	8b 45 0c             	mov    0xc(%ebp),%eax
 8049a2d:	8d 50 14             	lea    0x14(%eax),%edx
 8049a30:	89 54 24 1c          	mov    %edx,0x1c(%esp)
 8049a34:	8d 50 10             	lea    0x10(%eax),%edx
 8049a37:	89 54 24 18          	mov    %edx,0x18(%esp)
 8049a3b:	8d 50 0c             	lea    0xc(%eax),%edx
 8049a3e:	89 54 24 14          	mov    %edx,0x14(%esp)
 8049a42:	8d 50 08             	lea    0x8(%eax),%edx
 8049a45:	89 54 24 10          	mov    %edx,0x10(%esp)
 8049a49:	8d 50 04             	lea    0x4(%eax),%edx
 8049a4c:	89 54 24 0c          	mov    %edx,0xc(%esp)
 8049a50:	89 44 24 08          	mov    %eax,0x8(%esp)
 8049a54:	c7 44 24 04 22 a3 04 	movl   $0x804a322,0x4(%esp)
 8049a5b:	08 
 8049a5c:	8b 45 08             	mov    0x8(%ebp),%eax
 8049a5f:	89 04 24             	mov    %eax,(%esp)
 8049a62:	e8 d9 ee ff ff       	call   8048940 <__isoc99_sscanf@plt>
 8049a67:	83 f8 05             	cmp    $0x5,%eax
 8049a6a:	7f 05                	jg     8049a71 <read_six_numbers+0x4d>
 8049a6c:	e8 a7 fe ff ff       	call   8049918 <explode_bomb>
 8049a71:	c9                   	leave  
 8049a72:	c3                   	ret    

08049a73 <phase_defused>:
 8049a73:	55                   	push   %ebp
 8049a74:	89 e5                	mov    %esp,%ebp
 8049a76:	83 ec 78             	sub    $0x78,%esp
 8049a79:	65 a1 14 00 00 00    	mov    %gs:0x14,%eax
 8049a7f:	89 45 f4             	mov    %eax,-0xc(%ebp)
 8049a82:	31 c0                	xor    %eax,%eax
 8049a84:	c7 04 24 01 00 00 00 	movl   $0x1,(%esp)
 8049a8b:	e8 75 fe ff ff       	call   8049905 <send_msg>
 8049a90:	83 3d 4c c7 04 08 06 	cmpl   $0x6,0x804c74c
 8049a97:	75 73                	jne    8049b0c <phase_defused+0x99>
 8049a99:	8d 45 a4             	lea    -0x5c(%ebp),%eax
 8049a9c:	89 44 24 0c          	mov    %eax,0xc(%esp)
 8049aa0:	8d 45 a0             	lea    -0x60(%ebp),%eax
 8049aa3:	89 44 24 08          	mov    %eax,0x8(%esp)
 8049aa7:	c7 44 24 04 34 a3 04 	movl   $0x804a334,0x4(%esp)
 8049aae:	08 
 8049aaf:	c7 04 24 50 c8 04 08 	movl   $0x804c850,(%esp)
 8049ab6:	e8 85 ee ff ff       	call   8048940 <__isoc99_sscanf@plt>
 8049abb:	83 f8 02             	cmp    $0x2,%eax
 8049abe:	75 34                	jne    8049af4 <phase_defused+0x81>
 8049ac0:	c7 44 24 04 3a a3 04 	movl   $0x804a33a,0x4(%esp)
 8049ac7:	08 
 8049ac8:	8d 45 a4             	lea    -0x5c(%ebp),%eax
 8049acb:	89 04 24             	mov    %eax,(%esp)
 8049ace:	e8 e8 f5 ff ff       	call   80490bb <strings_not_equal>
 8049ad3:	85 c0                	test   %eax,%eax
 8049ad5:	75 1d                	jne    8049af4 <phase_defused+0x81>
 8049ad7:	c7 04 24 ec 9f 04 08 	movl   $0x8049fec,(%esp)
 8049ade:	e8 ed ed ff ff       	call   80488d0 <puts@plt>
 8049ae3:	c7 04 24 14 a0 04 08 	movl   $0x804a014,(%esp)
 8049aea:	e8 e1 ed ff ff       	call   80488d0 <puts@plt>
 8049aef:	e8 af f4 ff ff       	call   8048fa3 <secret_phase>
 8049af4:	c7 04 24 4c a0 04 08 	movl   $0x804a04c,(%esp)
 8049afb:	e8 d0 ed ff ff       	call   80488d0 <puts@plt>
 8049b00:	c7 04 24 78 a0 04 08 	movl   $0x804a078,(%esp)
 8049b07:	e8 c4 ed ff ff       	call   80488d0 <puts@plt>
 8049b0c:	8b 45 f4             	mov    -0xc(%ebp),%eax
 8049b0f:	65 33 05 14 00 00 00 	xor    %gs:0x14,%eax
 8049b16:	74 05                	je     8049b1d <phase_defused+0xaa>
 8049b18:	e8 63 ed ff ff       	call   8048880 <__stack_chk_fail@plt>
 8049b1d:	c9                   	leave  
 8049b1e:	66 90                	xchg   %ax,%ax
 8049b20:	c3                   	ret    
 8049b21:	90                   	nop
 8049b22:	90                   	nop
 8049b23:	90                   	nop

08049b24 <ch_eq>:
 8049b24:	55                   	push   %ebp
 8049b25:	89 e5                	mov    %esp,%ebp
 8049b27:	83 ec 18             	sub    $0x18,%esp
 8049b2a:	89 5d f4             	mov    %ebx,-0xc(%ebp)
 8049b2d:	89 75 f8             	mov    %esi,-0x8(%ebp)
 8049b30:	89 7d fc             	mov    %edi,-0x4(%ebp)
 8049b33:	89 c3                	mov    %eax,%ebx
 8049b35:	89 d6                	mov    %edx,%esi
 8049b37:	85 c9                	test   %ecx,%ecx
 8049b39:	75 32                	jne    8049b6d <ch_eq+0x49>
 8049b3b:	8d 80 80 00 00 00    	lea    0x80(%eax),%eax
 8049b41:	89 df                	mov    %ebx,%edi
 8049b43:	3d 7f 01 00 00       	cmp    $0x17f,%eax
 8049b48:	77 0a                	ja     8049b54 <ch_eq+0x30>
 8049b4a:	e8 b1 ee ff ff       	call   8048a00 <__ctype_tolower_loc@plt>
 8049b4f:	8b 00                	mov    (%eax),%eax
 8049b51:	8b 3c 98             	mov    (%eax,%ebx,4),%edi
 8049b54:	8d 86 80 00 00 00    	lea    0x80(%esi),%eax
 8049b5a:	89 fb                	mov    %edi,%ebx
 8049b5c:	3d 7f 01 00 00       	cmp    $0x17f,%eax
 8049b61:	77 0a                	ja     8049b6d <ch_eq+0x49>
 8049b63:	e8 98 ee ff ff       	call   8048a00 <__ctype_tolower_loc@plt>
 8049b68:	8b 00                	mov    (%eax),%eax
 8049b6a:	8b 34 b0             	mov    (%eax,%esi,4),%esi
 8049b6d:	39 f3                	cmp    %esi,%ebx
 8049b6f:	0f 95 c0             	setne  %al
 8049b72:	0f b6 c0             	movzbl %al,%eax
 8049b75:	8b 5d f4             	mov    -0xc(%ebp),%ebx
 8049b78:	8b 75 f8             	mov    -0x8(%ebp),%esi
 8049b7b:	8b 7d fc             	mov    -0x4(%ebp),%edi
 8049b7e:	89 ec                	mov    %ebp,%esp
 8049b80:	5d                   	pop    %ebp
 8049b81:	c3                   	ret    

08049b82 <wc_strncmp>:
 8049b82:	55                   	push   %ebp
 8049b83:	89 e5                	mov    %esp,%ebp
 8049b85:	57                   	push   %edi
 8049b86:	56                   	push   %esi
 8049b87:	53                   	push   %ebx
 8049b88:	83 ec 1c             	sub    $0x1c,%esp
 8049b8b:	8b 7d 08             	mov    0x8(%ebp),%edi
 8049b8e:	b8 02 00 00 00       	mov    $0x2,%eax
 8049b93:	85 ff                	test   %edi,%edi
 8049b95:	0f 84 14 01 00 00    	je     8049caf <wc_strncmp+0x12d>
 8049b9b:	b0 03                	mov    $0x3,%al
 8049b9d:	83 7d 0c 00          	cmpl   $0x0,0xc(%ebp)
 8049ba1:	0f 84 08 01 00 00    	je     8049caf <wc_strncmp+0x12d>
 8049ba7:	0f b6 17             	movzbl (%edi),%edx
 8049baa:	84 d2                	test   %dl,%dl
 8049bac:	0f 84 05 01 00 00    	je     8049cb7 <wc_strncmp+0x135>
 8049bb2:	83 c7 01             	add    $0x1,%edi
 8049bb5:	8b 5d 0c             	mov    0xc(%ebp),%ebx
 8049bb8:	c7 45 e4 00 00 00 00 	movl   $0x0,-0x1c(%ebp)
 8049bbf:	c7 45 dc 00 00 00 00 	movl   $0x0,-0x24(%ebp)
 8049bc6:	83 7d 18 00          	cmpl   $0x0,0x18(%ebp)
 8049bca:	74 1f                	je     8049beb <wc_strncmp+0x69>
 8049bcc:	80 fa 3f             	cmp    $0x3f,%dl
 8049bcf:	74 13                	je     8049be4 <wc_strncmp+0x62>
 8049bd1:	80 fa 2a             	cmp    $0x2a,%dl
 8049bd4:	75 15                	jne    8049beb <wc_strncmp+0x69>
 8049bd6:	89 fa                	mov    %edi,%edx
 8049bd8:	c7 45 dc 01 00 00 00 	movl   $0x1,-0x24(%ebp)
 8049bdf:	e9 8b 00 00 00       	jmp    8049c6f <wc_strncmp+0xed>
 8049be4:	c7 45 e4 01 00 00 00 	movl   $0x1,-0x1c(%ebp)
 8049beb:	0f b6 0b             	movzbl (%ebx),%ecx
 8049bee:	b8 05 00 00 00       	mov    $0x5,%eax
 8049bf3:	84 c9                	test   %cl,%cl
 8049bf5:	74 6f                	je     8049c66 <wc_strncmp+0xe4>
 8049bf7:	83 7d e4 00          	cmpl   $0x0,-0x1c(%ebp)
 8049bfb:	75 4f                	jne    8049c4c <wc_strncmp+0xca>
 8049bfd:	0f be c2             	movsbl %dl,%eax
 8049c00:	89 45 e0             	mov    %eax,-0x20(%ebp)
 8049c03:	83 7d dc 00          	cmpl   $0x0,-0x24(%ebp)
 8049c07:	75 0b                	jne    8049c14 <wc_strncmp+0x92>
 8049c09:	eb 2f                	jmp    8049c3a <wc_strncmp+0xb8>
 8049c0b:	83 c3 01             	add    $0x1,%ebx
 8049c0e:	89 f0                	mov    %esi,%eax
 8049c10:	84 c0                	test   %al,%al
 8049c12:	74 46                	je     8049c5a <wc_strncmp+0xd8>
 8049c14:	0f b6 33             	movzbl (%ebx),%esi
 8049c17:	89 f0                	mov    %esi,%eax
 8049c19:	0f be d0             	movsbl %al,%edx
 8049c1c:	8b 4d 14             	mov    0x14(%ebp),%ecx
 8049c1f:	8b 45 e0             	mov    -0x20(%ebp),%eax
 8049c22:	e8 fd fe ff ff       	call   8049b24 <ch_eq>
 8049c27:	83 f8 01             	cmp    $0x1,%eax
 8049c2a:	74 df                	je     8049c0b <wc_strncmp+0x89>
 8049c2c:	b8 00 00 00 00       	mov    $0x0,%eax
 8049c31:	c7 45 dc 00 00 00 00 	movl   $0x0,-0x24(%ebp)
 8049c38:	eb 2c                	jmp    8049c66 <wc_strncmp+0xe4>
 8049c3a:	0f be f1             	movsbl %cl,%esi
 8049c3d:	0f be c2             	movsbl %dl,%eax
 8049c40:	8b 4d 14             	mov    0x14(%ebp),%ecx
 8049c43:	89 f2                	mov    %esi,%edx
 8049c45:	e8 da fe ff ff       	call   8049b24 <ch_eq>
 8049c4a:	eb 1a                	jmp    8049c66 <wc_strncmp+0xe4>
 8049c4c:	b8 00 00 00 00       	mov    $0x0,%eax
 8049c51:	c7 45 e4 00 00 00 00 	movl   $0x0,-0x1c(%ebp)
 8049c58:	eb 0c                	jmp    8049c66 <wc_strncmp+0xe4>
 8049c5a:	b8 05 00 00 00       	mov    $0x5,%eax
 8049c5f:	c7 45 dc 00 00 00 00 	movl   $0x0,-0x24(%ebp)
 8049c66:	83 c3 01             	add    $0x1,%ebx
 8049c69:	89 fa                	mov    %edi,%edx
 8049c6b:	85 c0                	test   %eax,%eax
 8049c6d:	75 40                	jne    8049caf <wc_strncmp+0x12d>
 8049c6f:	0f b6 12             	movzbl (%edx),%edx
 8049c72:	83 c7 01             	add    $0x1,%edi
 8049c75:	84 d2                	test   %dl,%dl
 8049c77:	0f 85 49 ff ff ff    	jne    8049bc6 <wc_strncmp+0x44>
 8049c7d:	eb 42                	jmp    8049cc1 <wc_strncmp+0x13f>
 8049c7f:	8b 7d 0c             	mov    0xc(%ebp),%edi
 8049c82:	b8 00 00 00 00       	mov    $0x0,%eax
 8049c87:	b9 ff ff ff ff       	mov    $0xffffffff,%ecx
 8049c8c:	f2 ae                	repnz scas %es:(%edi),%al
 8049c8e:	f7 d1                	not    %ecx
 8049c90:	83 e9 01             	sub    $0x1,%ecx
 8049c93:	89 da                	mov    %ebx,%edx
 8049c95:	2b 55 0c             	sub    0xc(%ebp),%edx
 8049c98:	b8 00 00 00 00       	mov    $0x0,%eax
 8049c9d:	39 d1                	cmp    %edx,%ecx
 8049c9f:	7e 0e                	jle    8049caf <wc_strncmp+0x12d>
 8049ca1:	80 3b 00             	cmpb   $0x0,(%ebx)
 8049ca4:	74 09                	je     8049caf <wc_strncmp+0x12d>
 8049ca6:	83 7d dc 01          	cmpl   $0x1,-0x24(%ebp)
 8049caa:	19 c0                	sbb    %eax,%eax
 8049cac:	83 e0 04             	and    $0x4,%eax
 8049caf:	83 c4 1c             	add    $0x1c,%esp
 8049cb2:	5b                   	pop    %ebx
 8049cb3:	5e                   	pop    %esi
 8049cb4:	5f                   	pop    %edi
 8049cb5:	5d                   	pop    %ebp
 8049cb6:	c3                   	ret    
 8049cb7:	8b 5d 0c             	mov    0xc(%ebp),%ebx
 8049cba:	c7 45 dc 00 00 00 00 	movl   $0x0,-0x24(%ebp)
 8049cc1:	8b 4d 10             	mov    0x10(%ebp),%ecx
 8049cc4:	83 7d 10 00          	cmpl   $0x0,0x10(%ebp)
 8049cc8:	79 c9                	jns    8049c93 <wc_strncmp+0x111>
 8049cca:	eb b3                	jmp    8049c7f <wc_strncmp+0xfd>
 8049ccc:	90                   	nop
 8049ccd:	90                   	nop
 8049cce:	90                   	nop
 8049ccf:	90                   	nop

08049cd0 <__libc_csu_init>:
 8049cd0:	55                   	push   %ebp
 8049cd1:	57                   	push   %edi
 8049cd2:	56                   	push   %esi
 8049cd3:	53                   	push   %ebx
 8049cd4:	e8 69 00 00 00       	call   8049d42 <__i686.get_pc_thunk.bx>
 8049cd9:	81 c3 1b 23 00 00    	add    $0x231b,%ebx
 8049cdf:	83 ec 1c             	sub    $0x1c,%esp
 8049ce2:	8b 6c 24 30          	mov    0x30(%esp),%ebp
 8049ce6:	8d bb 20 ff ff ff    	lea    -0xe0(%ebx),%edi
 8049cec:	e8 d7 ea ff ff       	call   80487c8 <_init>
 8049cf1:	8d 83 20 ff ff ff    	lea    -0xe0(%ebx),%eax
 8049cf7:	29 c7                	sub    %eax,%edi
 8049cf9:	c1 ff 02             	sar    $0x2,%edi
 8049cfc:	85 ff                	test   %edi,%edi
 8049cfe:	74 29                	je     8049d29 <__libc_csu_init+0x59>
 8049d00:	31 f6                	xor    %esi,%esi
 8049d02:	8d b6 00 00 00 00    	lea    0x0(%esi),%esi
 8049d08:	8b 44 24 38          	mov    0x38(%esp),%eax
 8049d0c:	89 2c 24             	mov    %ebp,(%esp)
 8049d0f:	89 44 24 08          	mov    %eax,0x8(%esp)
 8049d13:	8b 44 24 34          	mov    0x34(%esp),%eax
 8049d17:	89 44 24 04          	mov    %eax,0x4(%esp)
 8049d1b:	ff 94 b3 20 ff ff ff 	call   *-0xe0(%ebx,%esi,4)
 8049d22:	83 c6 01             	add    $0x1,%esi
 8049d25:	39 fe                	cmp    %edi,%esi
 8049d27:	75 df                	jne    8049d08 <__libc_csu_init+0x38>
 8049d29:	83 c4 1c             	add    $0x1c,%esp
 8049d2c:	5b                   	pop    %ebx
 8049d2d:	5e                   	pop    %esi
 8049d2e:	5f                   	pop    %edi
 8049d2f:	5d                   	pop    %ebp
 8049d30:	c3                   	ret    
 8049d31:	eb 0d                	jmp    8049d40 <__libc_csu_fini>
 8049d33:	90                   	nop
 8049d34:	90                   	nop
 8049d35:	90                   	nop
 8049d36:	90                   	nop
 8049d37:	90                   	nop
 8049d38:	90                   	nop
 8049d39:	90                   	nop
 8049d3a:	90                   	nop
 8049d3b:	90                   	nop
 8049d3c:	90                   	nop
 8049d3d:	90                   	nop
 8049d3e:	90                   	nop
 8049d3f:	90                   	nop

08049d40 <__libc_csu_fini>:
 8049d40:	f3 c3                	repz ret 

08049d42 <__i686.get_pc_thunk.bx>:
 8049d42:	8b 1c 24             	mov    (%esp),%ebx
 8049d45:	c3                   	ret    
 8049d46:	90                   	nop
 8049d47:	90                   	nop
 8049d48:	90                   	nop
 8049d49:	90                   	nop
 8049d4a:	90                   	nop
 8049d4b:	90                   	nop
 8049d4c:	90                   	nop
 8049d4d:	90                   	nop
 8049d4e:	90                   	nop
 8049d4f:	90                   	nop

08049d50 <__do_global_ctors_aux>:
 8049d50:	55                   	push   %ebp
 8049d51:	89 e5                	mov    %esp,%ebp
 8049d53:	53                   	push   %ebx
 8049d54:	83 ec 04             	sub    $0x4,%esp
 8049d57:	a1 14 bf 04 08       	mov    0x804bf14,%eax
 8049d5c:	83 f8 ff             	cmp    $0xffffffff,%eax
 8049d5f:	74 13                	je     8049d74 <__do_global_ctors_aux+0x24>
 8049d61:	bb 14 bf 04 08       	mov    $0x804bf14,%ebx
 8049d66:	66 90                	xchg   %ax,%ax
 8049d68:	83 eb 04             	sub    $0x4,%ebx
 8049d6b:	ff d0                	call   *%eax
 8049d6d:	8b 03                	mov    (%ebx),%eax
 8049d6f:	83 f8 ff             	cmp    $0xffffffff,%eax
 8049d72:	75 f4                	jne    8049d68 <__do_global_ctors_aux+0x18>
 8049d74:	83 c4 04             	add    $0x4,%esp
 8049d77:	5b                   	pop    %ebx
 8049d78:	5d                   	pop    %ebp
 8049d79:	c3                   	ret    
 8049d7a:	90                   	nop
 8049d7b:	90                   	nop

Disassembly of section .fini:

08049d7c <_fini>:
 8049d7c:	53                   	push   %ebx
 8049d7d:	83 ec 08             	sub    $0x8,%esp
 8049d80:	e8 00 00 00 00       	call   8049d85 <_fini+0x9>
 8049d85:	5b                   	pop    %ebx
 8049d86:	81 c3 6f 22 00 00    	add    $0x226f,%ebx
 8049d8c:	e8 cf ec ff ff       	call   8048a60 <__do_global_dtors_aux>
 8049d91:	83 c4 08             	add    $0x8,%esp
 8049d94:	5b                   	pop    %ebx
 8049d95:	c3                   	ret    
